

Microchip Technology PIC LITE Macro Assembler V1.41 build -162212810 
                                                                                               Thu Feb 16 15:50:44 2017

Microchip Technology Omniscient Code Generator v1.41 (Free mode) build 201701250102
     1                           	processor	16F1938
     2                           	opt	pw 120
     3                           	opt	lm
     4                           	psect	cinit,global,class=CODE,merge=1,delta=2
     5                           	psect	bssCOMMON,global,class=COMMON,space=1,delta=1
     6                           	psect	bssBANK0,global,class=BANK0,space=1,delta=1
     7                           	psect	clrtext,global,class=CODE,delta=2
     8                           	psect	cstackCOMMON,global,class=COMMON,space=1,delta=1
     9                           	psect	cstackBANK0,global,class=BANK0,space=1,delta=1
    10                           	psect	maintext,global,class=CODE,merge=1,split=1,delta=2
    11                           	psect	text1,local,class=CODE,merge=1,delta=2
    12                           	psect	text2,local,class=CODE,merge=1,delta=2
    13                           	psect	text3,local,class=CODE,merge=1,delta=2
    14                           	psect	text4,local,class=CODE,merge=1,delta=2
    15                           	psect	text5,local,class=CODE,merge=1,delta=2
    16                           	psect	intentry,global,class=CODE,delta=2
    17                           	psect	text7,local,class=CODE,merge=1,delta=2
    18                           	psect	text8,local,class=CODE,merge=1,delta=2
    19                           	psect	text9,local,class=CODE,merge=1,delta=2
    20                           	dabs	1,0x7E,2
    21  0000                     
    22                           ; Version 1.41
    23                           ; Generated 25/01/2017 GMT
    24                           ; 
    25                           ; Copyright © 2017, Microchip Technology Inc. and its subsidiaries ("Microchip")
    26                           ; All rights reserved.
    27                           ; 
    28                           ; This software is developed by Microchip Technology Inc. and its subsidiaries ("Microch
      +                          ip").
    29                           ; 
    30                           ; Redistribution and use in source and binary forms, with or without modification, are
    31                           ; permitted provided that the following conditions are met:
    32                           ; 
    33                           ;     1. Redistributions of source code must retain the above copyright notice, this lis
      +                          t of
    34                           ;        conditions and the following disclaimer.
    35                           ; 
    36                           ;     2. Redistributions in binary form must reproduce the above copyright notice, this 
      +                          list
    37                           ;        of conditions and the following disclaimer in the documentation and/or other
    38                           ;        materials provided with the distribution.
    39                           ; 
    40                           ;     3. Microchip's name may not be used to endorse or promote products derived from th
      +                          is
    41                           ;        software without specific prior written permission.
    42                           ; 
    43                           ; THIS SOFTWARE IS PROVIDED BY MICROCHIP "AS IS" AND ANY EXPRESS OR IMPLIED WARRANTIES,
    44                           ; INCLUDING, BUT NOT LIMITED TO, THE IMPLIED WARRANTIES OF MERCHANTABILITY AND FITNESS F
      +                          OR
    45                           ; PURPOSE ARE DISCLAIMED.  IN NO EVENT SHALL MICROCHIP BE LIABLE FOR ANY DIRECT, INDIREC
      +                          T,
    46                           ; INCIDENTAL, SPECIAL, EXEMPLARY, OR CONSEQUENTIAL DAMAGES (INCLUDING BUT NOT LIMITED TO
    47                           ; PROCUREMENT OF SUBSTITUTE GOODS OR SERVICES; LOSS OF USE, DATA OR PROFITS; OR BUSINESS
    48                           ; INTERRUPTION) HOWSOEVER CAUSED AND ON ANY THEORY OF LIABILITY, WHETHER IN CONTRACT, ST
      +                          RICT
    49                           ; LIABILITY, OR TORT (INCLUDING NEGLIGENCE OR OTHERWISE) ARISING IN ANY WAY OUT OF THE U
      +                          SE OF
    50                           ; THIS SOFTWARE, EVEN IF ADVISED OF THE POSSIBILITY OF SUCH DAMAGE.
    51                           ; 
    52                           ; 
    53                           ; Code-generator required, PIC16F1938 Definitions
    54                           ; 
    55                           ; SFR Addresses
    56  0000                     	;# 
    57  0001                     	;# 
    58  0002                     	;# 
    59  0003                     	;# 
    60  0004                     	;# 
    61  0005                     	;# 
    62  0006                     	;# 
    63  0007                     	;# 
    64  0008                     	;# 
    65  0009                     	;# 
    66  000A                     	;# 
    67  000B                     	;# 
    68  000C                     	;# 
    69  000D                     	;# 
    70  000E                     	;# 
    71  0010                     	;# 
    72  0011                     	;# 
    73  0012                     	;# 
    74  0013                     	;# 
    75  0015                     	;# 
    76  0016                     	;# 
    77  0016                     	;# 
    78  0017                     	;# 
    79  0018                     	;# 
    80  0019                     	;# 
    81  001A                     	;# 
    82  001B                     	;# 
    83  001C                     	;# 
    84  001E                     	;# 
    85  001F                     	;# 
    86  008C                     	;# 
    87  008D                     	;# 
    88  008E                     	;# 
    89  0090                     	;# 
    90  0091                     	;# 
    91  0092                     	;# 
    92  0093                     	;# 
    93  0095                     	;# 
    94  0096                     	;# 
    95  0097                     	;# 
    96  0098                     	;# 
    97  0099                     	;# 
    98  009A                     	;# 
    99  009B                     	;# 
   100  009B                     	;# 
   101  009C                     	;# 
   102  009D                     	;# 
   103  009E                     	;# 
   104  010C                     	;# 
   105  010D                     	;# 
   106  010E                     	;# 
   107  0110                     	;# 
   108  0111                     	;# 
   109  0112                     	;# 
   110  0113                     	;# 
   111  0114                     	;# 
   112  0115                     	;# 
   113  0116                     	;# 
   114  0117                     	;# 
   115  0118                     	;# 
   116  0119                     	;# 
   117  011A                     	;# 
   118  011B                     	;# 
   119  011D                     	;# 
   120  018C                     	;# 
   121  018D                     	;# 
   122  0191                     	;# 
   123  0191                     	;# 
   124  0192                     	;# 
   125  0193                     	;# 
   126  0193                     	;# 
   127  0193                     	;# 
   128  0194                     	;# 
   129  0195                     	;# 
   130  0196                     	;# 
   131  0199                     	;# 
   132  019A                     	;# 
   133  019B                     	;# 
   134  019B                     	;# 
   135  019B                     	;# 
   136  019B                     	;# 
   137  019C                     	;# 
   138  019C                     	;# 
   139  019D                     	;# 
   140  019E                     	;# 
   141  019F                     	;# 
   142  020D                     	;# 
   143  0210                     	;# 
   144  0211                     	;# 
   145  0212                     	;# 
   146  0213                     	;# 
   147  0214                     	;# 
   148  0215                     	;# 
   149  0215                     	;# 
   150  0216                     	;# 
   151  0217                     	;# 
   152  0291                     	;# 
   153  0291                     	;# 
   154  0292                     	;# 
   155  0293                     	;# 
   156  0294                     	;# 
   157  0295                     	;# 
   158  0295                     	;# 
   159  0296                     	;# 
   160  0298                     	;# 
   161  0298                     	;# 
   162  0299                     	;# 
   163  029A                     	;# 
   164  029B                     	;# 
   165  029C                     	;# 
   166  029C                     	;# 
   167  029D                     	;# 
   168  029E                     	;# 
   169  029F                     	;# 
   170  0311                     	;# 
   171  0311                     	;# 
   172  0312                     	;# 
   173  0313                     	;# 
   174  0314                     	;# 
   175  0315                     	;# 
   176  0315                     	;# 
   177  0316                     	;# 
   178  0318                     	;# 
   179  0318                     	;# 
   180  0319                     	;# 
   181  031A                     	;# 
   182  031C                     	;# 
   183  031C                     	;# 
   184  031D                     	;# 
   185  031E                     	;# 
   186  0394                     	;# 
   187  0395                     	;# 
   188  0396                     	;# 
   189  0415                     	;# 
   190  0416                     	;# 
   191  0417                     	;# 
   192  041C                     	;# 
   193  041D                     	;# 
   194  041E                     	;# 
   195  0791                     	;# 
   196  0792                     	;# 
   197  0793                     	;# 
   198  0794                     	;# 
   199  0795                     	;# 
   200  0798                     	;# 
   201  0799                     	;# 
   202  07A0                     	;# 
   203  07A1                     	;# 
   204  07A3                     	;# 
   205  07A4                     	;# 
   206  07A6                     	;# 
   207  07A7                     	;# 
   208  07A9                     	;# 
   209  07AA                     	;# 
   210  0FE4                     	;# 
   211  0FE5                     	;# 
   212  0FE6                     	;# 
   213  0FE7                     	;# 
   214  0FE8                     	;# 
   215  0FE9                     	;# 
   216  0FEA                     	;# 
   217  0FEB                     	;# 
   218  0FED                     	;# 
   219  0FEE                     	;# 
   220  0FEF                     	;# 
   221  0000                     	;# 
   222  0001                     	;# 
   223  0002                     	;# 
   224  0003                     	;# 
   225  0004                     	;# 
   226  0005                     	;# 
   227  0006                     	;# 
   228  0007                     	;# 
   229  0008                     	;# 
   230  0009                     	;# 
   231  000A                     	;# 
   232  000B                     	;# 
   233  000C                     	;# 
   234  000D                     	;# 
   235  000E                     	;# 
   236  0010                     	;# 
   237  0011                     	;# 
   238  0012                     	;# 
   239  0013                     	;# 
   240  0015                     	;# 
   241  0016                     	;# 
   242  0016                     	;# 
   243  0017                     	;# 
   244  0018                     	;# 
   245  0019                     	;# 
   246  001A                     	;# 
   247  001B                     	;# 
   248  001C                     	;# 
   249  001E                     	;# 
   250  001F                     	;# 
   251  008C                     	;# 
   252  008D                     	;# 
   253  008E                     	;# 
   254  0090                     	;# 
   255  0091                     	;# 
   256  0092                     	;# 
   257  0093                     	;# 
   258  0095                     	;# 
   259  0096                     	;# 
   260  0097                     	;# 
   261  0098                     	;# 
   262  0099                     	;# 
   263  009A                     	;# 
   264  009B                     	;# 
   265  009B                     	;# 
   266  009C                     	;# 
   267  009D                     	;# 
   268  009E                     	;# 
   269  010C                     	;# 
   270  010D                     	;# 
   271  010E                     	;# 
   272  0110                     	;# 
   273  0111                     	;# 
   274  0112                     	;# 
   275  0113                     	;# 
   276  0114                     	;# 
   277  0115                     	;# 
   278  0116                     	;# 
   279  0117                     	;# 
   280  0118                     	;# 
   281  0119                     	;# 
   282  011A                     	;# 
   283  011B                     	;# 
   284  011D                     	;# 
   285  018C                     	;# 
   286  018D                     	;# 
   287  0191                     	;# 
   288  0191                     	;# 
   289  0192                     	;# 
   290  0193                     	;# 
   291  0193                     	;# 
   292  0193                     	;# 
   293  0194                     	;# 
   294  0195                     	;# 
   295  0196                     	;# 
   296  0199                     	;# 
   297  019A                     	;# 
   298  019B                     	;# 
   299  019B                     	;# 
   300  019B                     	;# 
   301  019B                     	;# 
   302  019C                     	;# 
   303  019C                     	;# 
   304  019D                     	;# 
   305  019E                     	;# 
   306  019F                     	;# 
   307  020D                     	;# 
   308  0210                     	;# 
   309  0211                     	;# 
   310  0212                     	;# 
   311  0213                     	;# 
   312  0214                     	;# 
   313  0215                     	;# 
   314  0215                     	;# 
   315  0216                     	;# 
   316  0217                     	;# 
   317  0291                     	;# 
   318  0291                     	;# 
   319  0292                     	;# 
   320  0293                     	;# 
   321  0294                     	;# 
   322  0295                     	;# 
   323  0295                     	;# 
   324  0296                     	;# 
   325  0298                     	;# 
   326  0298                     	;# 
   327  0299                     	;# 
   328  029A                     	;# 
   329  029B                     	;# 
   330  029C                     	;# 
   331  029C                     	;# 
   332  029D                     	;# 
   333  029E                     	;# 
   334  029F                     	;# 
   335  0311                     	;# 
   336  0311                     	;# 
   337  0312                     	;# 
   338  0313                     	;# 
   339  0314                     	;# 
   340  0315                     	;# 
   341  0315                     	;# 
   342  0316                     	;# 
   343  0318                     	;# 
   344  0318                     	;# 
   345  0319                     	;# 
   346  031A                     	;# 
   347  031C                     	;# 
   348  031C                     	;# 
   349  031D                     	;# 
   350  031E                     	;# 
   351  0394                     	;# 
   352  0395                     	;# 
   353  0396                     	;# 
   354  0415                     	;# 
   355  0416                     	;# 
   356  0417                     	;# 
   357  041C                     	;# 
   358  041D                     	;# 
   359  041E                     	;# 
   360  0791                     	;# 
   361  0792                     	;# 
   362  0793                     	;# 
   363  0794                     	;# 
   364  0795                     	;# 
   365  0798                     	;# 
   366  0799                     	;# 
   367  07A0                     	;# 
   368  07A1                     	;# 
   369  07A3                     	;# 
   370  07A4                     	;# 
   371  07A6                     	;# 
   372  07A7                     	;# 
   373  07A9                     	;# 
   374  07AA                     	;# 
   375  0FE4                     	;# 
   376  0FE5                     	;# 
   377  0FE6                     	;# 
   378  0FE7                     	;# 
   379  0FE8                     	;# 
   380  0FE9                     	;# 
   381  0FEA                     	;# 
   382  0FEB                     	;# 
   383  0FED                     	;# 
   384  0FEE                     	;# 
   385  0FEF                     	;# 
   386  0000                     	;# 
   387  0001                     	;# 
   388  0002                     	;# 
   389  0003                     	;# 
   390  0004                     	;# 
   391  0005                     	;# 
   392  0006                     	;# 
   393  0007                     	;# 
   394  0008                     	;# 
   395  0009                     	;# 
   396  000A                     	;# 
   397  000B                     	;# 
   398  000C                     	;# 
   399  000D                     	;# 
   400  000E                     	;# 
   401  0010                     	;# 
   402  0011                     	;# 
   403  0012                     	;# 
   404  0013                     	;# 
   405  0015                     	;# 
   406  0016                     	;# 
   407  0016                     	;# 
   408  0017                     	;# 
   409  0018                     	;# 
   410  0019                     	;# 
   411  001A                     	;# 
   412  001B                     	;# 
   413  001C                     	;# 
   414  001E                     	;# 
   415  001F                     	;# 
   416  008C                     	;# 
   417  008D                     	;# 
   418  008E                     	;# 
   419  0090                     	;# 
   420  0091                     	;# 
   421  0092                     	;# 
   422  0093                     	;# 
   423  0095                     	;# 
   424  0096                     	;# 
   425  0097                     	;# 
   426  0098                     	;# 
   427  0099                     	;# 
   428  009A                     	;# 
   429  009B                     	;# 
   430  009B                     	;# 
   431  009C                     	;# 
   432  009D                     	;# 
   433  009E                     	;# 
   434  010C                     	;# 
   435  010D                     	;# 
   436  010E                     	;# 
   437  0110                     	;# 
   438  0111                     	;# 
   439  0112                     	;# 
   440  0113                     	;# 
   441  0114                     	;# 
   442  0115                     	;# 
   443  0116                     	;# 
   444  0117                     	;# 
   445  0118                     	;# 
   446  0119                     	;# 
   447  011A                     	;# 
   448  011B                     	;# 
   449  011D                     	;# 
   450  018C                     	;# 
   451  018D                     	;# 
   452  0191                     	;# 
   453  0191                     	;# 
   454  0192                     	;# 
   455  0193                     	;# 
   456  0193                     	;# 
   457  0193                     	;# 
   458  0194                     	;# 
   459  0195                     	;# 
   460  0196                     	;# 
   461  0199                     	;# 
   462  019A                     	;# 
   463  019B                     	;# 
   464  019B                     	;# 
   465  019B                     	;# 
   466  019B                     	;# 
   467  019C                     	;# 
   468  019C                     	;# 
   469  019D                     	;# 
   470  019E                     	;# 
   471  019F                     	;# 
   472  020D                     	;# 
   473  0210                     	;# 
   474  0211                     	;# 
   475  0212                     	;# 
   476  0213                     	;# 
   477  0214                     	;# 
   478  0215                     	;# 
   479  0215                     	;# 
   480  0216                     	;# 
   481  0217                     	;# 
   482  0291                     	;# 
   483  0291                     	;# 
   484  0292                     	;# 
   485  0293                     	;# 
   486  0294                     	;# 
   487  0295                     	;# 
   488  0295                     	;# 
   489  0296                     	;# 
   490  0298                     	;# 
   491  0298                     	;# 
   492  0299                     	;# 
   493  029A                     	;# 
   494  029B                     	;# 
   495  029C                     	;# 
   496  029C                     	;# 
   497  029D                     	;# 
   498  029E                     	;# 
   499  029F                     	;# 
   500  0311                     	;# 
   501  0311                     	;# 
   502  0312                     	;# 
   503  0313                     	;# 
   504  0314                     	;# 
   505  0315                     	;# 
   506  0315                     	;# 
   507  0316                     	;# 
   508  0318                     	;# 
   509  0318                     	;# 
   510  0319                     	;# 
   511  031A                     	;# 
   512  031C                     	;# 
   513  031C                     	;# 
   514  031D                     	;# 
   515  031E                     	;# 
   516  0394                     	;# 
   517  0395                     	;# 
   518  0396                     	;# 
   519  0415                     	;# 
   520  0416                     	;# 
   521  0417                     	;# 
   522  041C                     	;# 
   523  041D                     	;# 
   524  041E                     	;# 
   525  0791                     	;# 
   526  0792                     	;# 
   527  0793                     	;# 
   528  0794                     	;# 
   529  0795                     	;# 
   530  0798                     	;# 
   531  0799                     	;# 
   532  07A0                     	;# 
   533  07A1                     	;# 
   534  07A3                     	;# 
   535  07A4                     	;# 
   536  07A6                     	;# 
   537  07A7                     	;# 
   538  07A9                     	;# 
   539  07AA                     	;# 
   540  0FE4                     	;# 
   541  0FE5                     	;# 
   542  0FE6                     	;# 
   543  0FE7                     	;# 
   544  0FE8                     	;# 
   545  0FE9                     	;# 
   546  0FEA                     	;# 
   547  0FEB                     	;# 
   548  0FED                     	;# 
   549  0FEE                     	;# 
   550  0FEF                     	;# 
   551  0000                     	;# 
   552  0001                     	;# 
   553  0002                     	;# 
   554  0003                     	;# 
   555  0004                     	;# 
   556  0005                     	;# 
   557  0006                     	;# 
   558  0007                     	;# 
   559  0008                     	;# 
   560  0009                     	;# 
   561  000A                     	;# 
   562  000B                     	;# 
   563  000C                     	;# 
   564  000D                     	;# 
   565  000E                     	;# 
   566  0010                     	;# 
   567  0011                     	;# 
   568  0012                     	;# 
   569  0013                     	;# 
   570  0015                     	;# 
   571  0016                     	;# 
   572  0016                     	;# 
   573  0017                     	;# 
   574  0018                     	;# 
   575  0019                     	;# 
   576  001A                     	;# 
   577  001B                     	;# 
   578  001C                     	;# 
   579  001E                     	;# 
   580  001F                     	;# 
   581  008C                     	;# 
   582  008D                     	;# 
   583  008E                     	;# 
   584  0090                     	;# 
   585  0091                     	;# 
   586  0092                     	;# 
   587  0093                     	;# 
   588  0095                     	;# 
   589  0096                     	;# 
   590  0097                     	;# 
   591  0098                     	;# 
   592  0099                     	;# 
   593  009A                     	;# 
   594  009B                     	;# 
   595  009B                     	;# 
   596  009C                     	;# 
   597  009D                     	;# 
   598  009E                     	;# 
   599  010C                     	;# 
   600  010D                     	;# 
   601  010E                     	;# 
   602  0110                     	;# 
   603  0111                     	;# 
   604  0112                     	;# 
   605  0113                     	;# 
   606  0114                     	;# 
   607  0115                     	;# 
   608  0116                     	;# 
   609  0117                     	;# 
   610  0118                     	;# 
   611  0119                     	;# 
   612  011A                     	;# 
   613  011B                     	;# 
   614  011D                     	;# 
   615  018C                     	;# 
   616  018D                     	;# 
   617  0191                     	;# 
   618  0191                     	;# 
   619  0192                     	;# 
   620  0193                     	;# 
   621  0193                     	;# 
   622  0193                     	;# 
   623  0194                     	;# 
   624  0195                     	;# 
   625  0196                     	;# 
   626  0199                     	;# 
   627  019A                     	;# 
   628  019B                     	;# 
   629  019B                     	;# 
   630  019B                     	;# 
   631  019B                     	;# 
   632  019C                     	;# 
   633  019C                     	;# 
   634  019D                     	;# 
   635  019E                     	;# 
   636  019F                     	;# 
   637  020D                     	;# 
   638  0210                     	;# 
   639  0211                     	;# 
   640  0212                     	;# 
   641  0213                     	;# 
   642  0214                     	;# 
   643  0215                     	;# 
   644  0215                     	;# 
   645  0216                     	;# 
   646  0217                     	;# 
   647  0291                     	;# 
   648  0291                     	;# 
   649  0292                     	;# 
   650  0293                     	;# 
   651  0294                     	;# 
   652  0295                     	;# 
   653  0295                     	;# 
   654  0296                     	;# 
   655  0298                     	;# 
   656  0298                     	;# 
   657  0299                     	;# 
   658  029A                     	;# 
   659  029B                     	;# 
   660  029C                     	;# 
   661  029C                     	;# 
   662  029D                     	;# 
   663  029E                     	;# 
   664  029F                     	;# 
   665  0311                     	;# 
   666  0311                     	;# 
   667  0312                     	;# 
   668  0313                     	;# 
   669  0314                     	;# 
   670  0315                     	;# 
   671  0315                     	;# 
   672  0316                     	;# 
   673  0318                     	;# 
   674  0318                     	;# 
   675  0319                     	;# 
   676  031A                     	;# 
   677  031C                     	;# 
   678  031C                     	;# 
   679  031D                     	;# 
   680  031E                     	;# 
   681  0394                     	;# 
   682  0395                     	;# 
   683  0396                     	;# 
   684  0415                     	;# 
   685  0416                     	;# 
   686  0417                     	;# 
   687  041C                     	;# 
   688  041D                     	;# 
   689  041E                     	;# 
   690  0791                     	;# 
   691  0792                     	;# 
   692  0793                     	;# 
   693  0794                     	;# 
   694  0795                     	;# 
   695  0798                     	;# 
   696  0799                     	;# 
   697  07A0                     	;# 
   698  07A1                     	;# 
   699  07A3                     	;# 
   700  07A4                     	;# 
   701  07A6                     	;# 
   702  07A7                     	;# 
   703  07A9                     	;# 
   704  07AA                     	;# 
   705  0FE4                     	;# 
   706  0FE5                     	;# 
   707  0FE6                     	;# 
   708  0FE7                     	;# 
   709  0FE8                     	;# 
   710  0FE9                     	;# 
   711  0FEA                     	;# 
   712  0FEB                     	;# 
   713  0FED                     	;# 
   714  0FEE                     	;# 
   715  0FEF                     	;# 
   716  0000                     	;# 
   717  0001                     	;# 
   718  0002                     	;# 
   719  0003                     	;# 
   720  0004                     	;# 
   721  0005                     	;# 
   722  0006                     	;# 
   723  0007                     	;# 
   724  0008                     	;# 
   725  0009                     	;# 
   726  000A                     	;# 
   727  000B                     	;# 
   728  000C                     	;# 
   729  000D                     	;# 
   730  000E                     	;# 
   731  0010                     	;# 
   732  0011                     	;# 
   733  0012                     	;# 
   734  0013                     	;# 
   735  0015                     	;# 
   736  0016                     	;# 
   737  0016                     	;# 
   738  0017                     	;# 
   739  0018                     	;# 
   740  0019                     	;# 
   741  001A                     	;# 
   742  001B                     	;# 
   743  001C                     	;# 
   744  001E                     	;# 
   745  001F                     	;# 
   746  008C                     	;# 
   747  008D                     	;# 
   748  008E                     	;# 
   749  0090                     	;# 
   750  0091                     	;# 
   751  0092                     	;# 
   752  0093                     	;# 
   753  0095                     	;# 
   754  0096                     	;# 
   755  0097                     	;# 
   756  0098                     	;# 
   757  0099                     	;# 
   758  009A                     	;# 
   759  009B                     	;# 
   760  009B                     	;# 
   761  009C                     	;# 
   762  009D                     	;# 
   763  009E                     	;# 
   764  010C                     	;# 
   765  010D                     	;# 
   766  010E                     	;# 
   767  0110                     	;# 
   768  0111                     	;# 
   769  0112                     	;# 
   770  0113                     	;# 
   771  0114                     	;# 
   772  0115                     	;# 
   773  0116                     	;# 
   774  0117                     	;# 
   775  0118                     	;# 
   776  0119                     	;# 
   777  011A                     	;# 
   778  011B                     	;# 
   779  011D                     	;# 
   780  018C                     	;# 
   781  018D                     	;# 
   782  0191                     	;# 
   783  0191                     	;# 
   784  0192                     	;# 
   785  0193                     	;# 
   786  0193                     	;# 
   787  0193                     	;# 
   788  0194                     	;# 
   789  0195                     	;# 
   790  0196                     	;# 
   791  0199                     	;# 
   792  019A                     	;# 
   793  019B                     	;# 
   794  019B                     	;# 
   795  019B                     	;# 
   796  019B                     	;# 
   797  019C                     	;# 
   798  019C                     	;# 
   799  019D                     	;# 
   800  019E                     	;# 
   801  019F                     	;# 
   802  020D                     	;# 
   803  0210                     	;# 
   804  0211                     	;# 
   805  0212                     	;# 
   806  0213                     	;# 
   807  0214                     	;# 
   808  0215                     	;# 
   809  0215                     	;# 
   810  0216                     	;# 
   811  0217                     	;# 
   812  0291                     	;# 
   813  0291                     	;# 
   814  0292                     	;# 
   815  0293                     	;# 
   816  0294                     	;# 
   817  0295                     	;# 
   818  0295                     	;# 
   819  0296                     	;# 
   820  0298                     	;# 
   821  0298                     	;# 
   822  0299                     	;# 
   823  029A                     	;# 
   824  029B                     	;# 
   825  029C                     	;# 
   826  029C                     	;# 
   827  029D                     	;# 
   828  029E                     	;# 
   829  029F                     	;# 
   830  0311                     	;# 
   831  0311                     	;# 
   832  0312                     	;# 
   833  0313                     	;# 
   834  0314                     	;# 
   835  0315                     	;# 
   836  0315                     	;# 
   837  0316                     	;# 
   838  0318                     	;# 
   839  0318                     	;# 
   840  0319                     	;# 
   841  031A                     	;# 
   842  031C                     	;# 
   843  031C                     	;# 
   844  031D                     	;# 
   845  031E                     	;# 
   846  0394                     	;# 
   847  0395                     	;# 
   848  0396                     	;# 
   849  0415                     	;# 
   850  0416                     	;# 
   851  0417                     	;# 
   852  041C                     	;# 
   853  041D                     	;# 
   854  041E                     	;# 
   855  0791                     	;# 
   856  0792                     	;# 
   857  0793                     	;# 
   858  0794                     	;# 
   859  0795                     	;# 
   860  0798                     	;# 
   861  0799                     	;# 
   862  07A0                     	;# 
   863  07A1                     	;# 
   864  07A3                     	;# 
   865  07A4                     	;# 
   866  07A6                     	;# 
   867  07A7                     	;# 
   868  07A9                     	;# 
   869  07AA                     	;# 
   870  0FE4                     	;# 
   871  0FE5                     	;# 
   872  0FE6                     	;# 
   873  0FE7                     	;# 
   874  0FE8                     	;# 
   875  0FE9                     	;# 
   876  0FEA                     	;# 
   877  0FEB                     	;# 
   878  0FED                     	;# 
   879  0FEE                     	;# 
   880  0FEF                     	;# 
   881  0000                     	;# 
   882  0001                     	;# 
   883  0002                     	;# 
   884  0003                     	;# 
   885  0004                     	;# 
   886  0005                     	;# 
   887  0006                     	;# 
   888  0007                     	;# 
   889  0008                     	;# 
   890  0009                     	;# 
   891  000A                     	;# 
   892  000B                     	;# 
   893  000C                     	;# 
   894  000D                     	;# 
   895  000E                     	;# 
   896  0010                     	;# 
   897  0011                     	;# 
   898  0012                     	;# 
   899  0013                     	;# 
   900  0015                     	;# 
   901  0016                     	;# 
   902  0016                     	;# 
   903  0017                     	;# 
   904  0018                     	;# 
   905  0019                     	;# 
   906  001A                     	;# 
   907  001B                     	;# 
   908  001C                     	;# 
   909  001E                     	;# 
   910  001F                     	;# 
   911  008C                     	;# 
   912  008D                     	;# 
   913  008E                     	;# 
   914  0090                     	;# 
   915  0091                     	;# 
   916  0092                     	;# 
   917  0093                     	;# 
   918  0095                     	;# 
   919  0096                     	;# 
   920  0097                     	;# 
   921  0098                     	;# 
   922  0099                     	;# 
   923  009A                     	;# 
   924  009B                     	;# 
   925  009B                     	;# 
   926  009C                     	;# 
   927  009D                     	;# 
   928  009E                     	;# 
   929  010C                     	;# 
   930  010D                     	;# 
   931  010E                     	;# 
   932  0110                     	;# 
   933  0111                     	;# 
   934  0112                     	;# 
   935  0113                     	;# 
   936  0114                     	;# 
   937  0115                     	;# 
   938  0116                     	;# 
   939  0117                     	;# 
   940  0118                     	;# 
   941  0119                     	;# 
   942  011A                     	;# 
   943  011B                     	;# 
   944  011D                     	;# 
   945  018C                     	;# 
   946  018D                     	;# 
   947  0191                     	;# 
   948  0191                     	;# 
   949  0192                     	;# 
   950  0193                     	;# 
   951  0193                     	;# 
   952  0193                     	;# 
   953  0194                     	;# 
   954  0195                     	;# 
   955  0196                     	;# 
   956  0199                     	;# 
   957  019A                     	;# 
   958  019B                     	;# 
   959  019B                     	;# 
   960  019B                     	;# 
   961  019B                     	;# 
   962  019C                     	;# 
   963  019C                     	;# 
   964  019D                     	;# 
   965  019E                     	;# 
   966  019F                     	;# 
   967  020D                     	;# 
   968  0210                     	;# 
   969  0211                     	;# 
   970  0212                     	;# 
   971  0213                     	;# 
   972  0214                     	;# 
   973  0215                     	;# 
   974  0215                     	;# 
   975  0216                     	;# 
   976  0217                     	;# 
   977  0291                     	;# 
   978  0291                     	;# 
   979  0292                     	;# 
   980  0293                     	;# 
   981  0294                     	;# 
   982  0295                     	;# 
   983  0295                     	;# 
   984  0296                     	;# 
   985  0298                     	;# 
   986  0298                     	;# 
   987  0299                     	;# 
   988  029A                     	;# 
   989  029B                     	;# 
   990  029C                     	;# 
   991  029C                     	;# 
   992  029D                     	;# 
   993  029E                     	;# 
   994  029F                     	;# 
   995  0311                     	;# 
   996  0311                     	;# 
   997  0312                     	;# 
   998  0313                     	;# 
   999  0314                     	;# 
  1000  0315                     	;# 
  1001  0315                     	;# 
  1002  0316                     	;# 
  1003  0318                     	;# 
  1004  0318                     	;# 
  1005  0319                     	;# 
  1006  031A                     	;# 
  1007  031C                     	;# 
  1008  031C                     	;# 
  1009  031D                     	;# 
  1010  031E                     	;# 
  1011  0394                     	;# 
  1012  0395                     	;# 
  1013  0396                     	;# 
  1014  0415                     	;# 
  1015  0416                     	;# 
  1016  0417                     	;# 
  1017  041C                     	;# 
  1018  041D                     	;# 
  1019  041E                     	;# 
  1020  0791                     	;# 
  1021  0792                     	;# 
  1022  0793                     	;# 
  1023  0794                     	;# 
  1024  0795                     	;# 
  1025  0798                     	;# 
  1026  0799                     	;# 
  1027  07A0                     	;# 
  1028  07A1                     	;# 
  1029  07A3                     	;# 
  1030  07A4                     	;# 
  1031  07A6                     	;# 
  1032  07A7                     	;# 
  1033  07A9                     	;# 
  1034  07AA                     	;# 
  1035  0FE4                     	;# 
  1036  0FE5                     	;# 
  1037  0FE6                     	;# 
  1038  0FE7                     	;# 
  1039  0FE8                     	;# 
  1040  0FE9                     	;# 
  1041  0FEA                     	;# 
  1042  0FEB                     	;# 
  1043  0FED                     	;# 
  1044  0FEE                     	;# 
  1045  0FEF                     	;# 
  1046  0000                     	;# 
  1047  0001                     	;# 
  1048  0002                     	;# 
  1049  0003                     	;# 
  1050  0004                     	;# 
  1051  0005                     	;# 
  1052  0006                     	;# 
  1053  0007                     	;# 
  1054  0008                     	;# 
  1055  0009                     	;# 
  1056  000A                     	;# 
  1057  000B                     	;# 
  1058  000C                     	;# 
  1059  000D                     	;# 
  1060  000E                     	;# 
  1061  0010                     	;# 
  1062  0011                     	;# 
  1063  0012                     	;# 
  1064  0013                     	;# 
  1065  0015                     	;# 
  1066  0016                     	;# 
  1067  0016                     	;# 
  1068  0017                     	;# 
  1069  0018                     	;# 
  1070  0019                     	;# 
  1071  001A                     	;# 
  1072  001B                     	;# 
  1073  001C                     	;# 
  1074  001E                     	;# 
  1075  001F                     	;# 
  1076  008C                     	;# 
  1077  008D                     	;# 
  1078  008E                     	;# 
  1079  0090                     	;# 
  1080  0091                     	;# 
  1081  0092                     	;# 
  1082  0093                     	;# 
  1083  0095                     	;# 
  1084  0096                     	;# 
  1085  0097                     	;# 
  1086  0098                     	;# 
  1087  0099                     	;# 
  1088  009A                     	;# 
  1089  009B                     	;# 
  1090  009B                     	;# 
  1091  009C                     	;# 
  1092  009D                     	;# 
  1093  009E                     	;# 
  1094  010C                     	;# 
  1095  010D                     	;# 
  1096  010E                     	;# 
  1097  0110                     	;# 
  1098  0111                     	;# 
  1099  0112                     	;# 
  1100  0113                     	;# 
  1101  0114                     	;# 
  1102  0115                     	;# 
  1103  0116                     	;# 
  1104  0117                     	;# 
  1105  0118                     	;# 
  1106  0119                     	;# 
  1107  011A                     	;# 
  1108  011B                     	;# 
  1109  011D                     	;# 
  1110  018C                     	;# 
  1111  018D                     	;# 
  1112  0191                     	;# 
  1113  0191                     	;# 
  1114  0192                     	;# 
  1115  0193                     	;# 
  1116  0193                     	;# 
  1117  0193                     	;# 
  1118  0194                     	;# 
  1119  0195                     	;# 
  1120  0196                     	;# 
  1121  0199                     	;# 
  1122  019A                     	;# 
  1123  019B                     	;# 
  1124  019B                     	;# 
  1125  019B                     	;# 
  1126  019B                     	;# 
  1127  019C                     	;# 
  1128  019C                     	;# 
  1129  019D                     	;# 
  1130  019E                     	;# 
  1131  019F                     	;# 
  1132  020D                     	;# 
  1133  0210                     	;# 
  1134  0211                     	;# 
  1135  0212                     	;# 
  1136  0213                     	;# 
  1137  0214                     	;# 
  1138  0215                     	;# 
  1139  0215                     	;# 
  1140  0216                     	;# 
  1141  0217                     	;# 
  1142  0291                     	;# 
  1143  0291                     	;# 
  1144  0292                     	;# 
  1145  0293                     	;# 
  1146  0294                     	;# 
  1147  0295                     	;# 
  1148  0295                     	;# 
  1149  0296                     	;# 
  1150  0298                     	;# 
  1151  0298                     	;# 
  1152  0299                     	;# 
  1153  029A                     	;# 
  1154  029B                     	;# 
  1155  029C                     	;# 
  1156  029C                     	;# 
  1157  029D                     	;# 
  1158  029E                     	;# 
  1159  029F                     	;# 
  1160  0311                     	;# 
  1161  0311                     	;# 
  1162  0312                     	;# 
  1163  0313                     	;# 
  1164  0314                     	;# 
  1165  0315                     	;# 
  1166  0315                     	;# 
  1167  0316                     	;# 
  1168  0318                     	;# 
  1169  0318                     	;# 
  1170  0319                     	;# 
  1171  031A                     	;# 
  1172  031C                     	;# 
  1173  031C                     	;# 
  1174  031D                     	;# 
  1175  031E                     	;# 
  1176  0394                     	;# 
  1177  0395                     	;# 
  1178  0396                     	;# 
  1179  0415                     	;# 
  1180  0416                     	;# 
  1181  0417                     	;# 
  1182  041C                     	;# 
  1183  041D                     	;# 
  1184  041E                     	;# 
  1185  0791                     	;# 
  1186  0792                     	;# 
  1187  0793                     	;# 
  1188  0794                     	;# 
  1189  0795                     	;# 
  1190  0798                     	;# 
  1191  0799                     	;# 
  1192  07A0                     	;# 
  1193  07A1                     	;# 
  1194  07A3                     	;# 
  1195  07A4                     	;# 
  1196  07A6                     	;# 
  1197  07A7                     	;# 
  1198  07A9                     	;# 
  1199  07AA                     	;# 
  1200  0FE4                     	;# 
  1201  0FE5                     	;# 
  1202  0FE6                     	;# 
  1203  0FE7                     	;# 
  1204  0FE8                     	;# 
  1205  0FE9                     	;# 
  1206  0FEA                     	;# 
  1207  0FEB                     	;# 
  1208  0FED                     	;# 
  1209  0FEE                     	;# 
  1210  0FEF                     	;# 
  1211  001C                     _T2CON	set	28
  1212  001B                     _PR2	set	27
  1213  000E                     _PORTC	set	14
  1214  000D                     _PORTB	set	13
  1215  000C                     _PORTA	set	12
  1216  0015                     _TMR0	set	21
  1217  0093                     _BCLIF	set	147
  1218  008B                     _SSPIF	set	139
  1219  008C                     _TXIF	set	140
  1220  008D                     _RCIF	set	141
  1221  005E                     _PEIE	set	94
  1222  0068                     _RB0	set	104
  1223  006C                     _RB4	set	108
  1224  0069                     _RB1	set	105
  1225  006A                     _RB2	set	106
  1226  0072                     _RC2	set	114
  1227  005A                     _TMR0IF	set	90
  1228  005D                     _TMR0IE	set	93
  1229  005F                     _GIE	set	95
  1230  008E                     _TRISC	set	142
  1231  008D                     _TRISB	set	141
  1232  008C                     _TRISA	set	140
  1233  0099                     _OSCCON	set	153
  1234  0095                     _OPTION_REG	set	149
  1235  009B                     _ADRESL	set	155
  1236  009C                     _ADRESH	set	156
  1237  009D                     _ADCON0	set	157
  1238  009E                     _ADCON1	set	158
  1239  0493                     _BCLIE	set	1171
  1240  048B                     _SSPIE	set	1163
  1241  048D                     _RCIE	set	1165
  1242  04E9                     _GO_nDONE	set	1257
  1243  0112                     _CM1CON1	set	274
  1244  0111                     _CM1CON0	set	273
  1245  0864                     _LATA4	set	2148
  1246  0863                     _LATA3	set	2147
  1247  019A                     _TXREG	set	410
  1248  0199                     _RCREG	set	409
  1249  019B                     _SPBRG	set	411
  1250  019D                     _RCSTA	set	413
  1251  019E                     _TXSTA	set	414
  1252  018D                     _ANSELB	set	397
  1253  018C                     _ANSELA	set	396
  1254  0CF5                     _TXEN	set	3317
  1255  0CEB                     _ADDEN	set	3307
  1256  0215                     _SSPCON1bits	set	533
  1257  0214                     _SSPSTATbits	set	532
  1258  0213                     _SSPMSK	set	531
  1259  0216                     _SSPCON2	set	534
  1260  0211                     _SSPBUF	set	529
  1261  0216                     _SSPCON2bits	set	534
  1262  0212                     _SSPADD	set	530
  1263  0215                     _SSPCON1	set	533
  1264  0214                     _SSPSTAT	set	532
  1265  0291                     _CCPR1L	set	657
  1266  0296                     _PSTR1CON	set	662
  1267  0293                     _CCP1CON	set	659
  1268  029E                     _CCPTMRS0	set	670
  1269                           
  1270                           ; #config settings
  1271  0000                     
  1272                           	psect	cinit
  1273  0018                     start_initialization:	
  1274  0018                     __initialization:	
  1275                           
  1276                           ; Clear objects allocated to COMMON
  1277  0018  01F6               	clrf	__pbssCOMMON& (0+127)
  1278  0019  01F7               	clrf	(__pbssCOMMON+1)& (0+127)
  1279  001A  01F8               	clrf	(__pbssCOMMON+2)& (0+127)
  1280  001B  01F9               	clrf	(__pbssCOMMON+3)& (0+127)
  1281                           
  1282                           ; Clear objects allocated to BANK0
  1283  001C  3020               	movlw	low __pbssBANK0
  1284  001D  0084               	movwf	4
  1285  001E  3000               	movlw	high __pbssBANK0
  1286  001F  0085               	movwf	5
  1287  0020  3016               	movlw	22
  1288  0021  3181  21A4         	fcall	clear_ram0
  1289  0023                     end_of_initialization:	
  1290                           ;End of C runtime variable initialization code
  1291                           
  1292  0023                     __end_of__initialization:	
  1293  0023  107E               	bcf	int$flags,0	;clear compiler interrupt flag (level 1)
  1294  0024  0020               	movlb	0
  1295  0025  3180  2827         	ljmp	_main	;jump to C main() function
  1296                           
  1297                           	psect	bssCOMMON
  1298  0076                     __pbssCOMMON:	
  1299  0076                     _AckCheck:	
  1300  0076                     	ds	2
  1301  0078                     _Sdtp:	
  1302  0078                     	ds	1
  1303  0079                     _RCV_Buff:	
  1304  0079                     	ds	1
  1305                           
  1306                           	psect	bssBANK0
  1307  0020                     __pbssBANK0:	
  1308  0020                     _success:	
  1309  0020                     	ds	2
  1310  0022                     _rcv_flg:	
  1311  0022                     	ds	2
  1312  0024                     _Rdtp:	
  1313  0024                     	ds	1
  1314  0025                     _UART_data:	
  1315  0025                     	ds	1
  1316  0026                     _snd_data:	
  1317  0026                     	ds	8
  1318  002E                     _rcv_data:	
  1319  002E                     	ds	8
  1320                           
  1321                           	psect	clrtext
  1322  01A4                     clear_ram0:	
  1323                           ;	Called with FSR0 containing the base address, and
  1324                           ;	WREG with the size to clear
  1325                           
  1326  01A4  0064               	clrwdt	;clear the watchdog before getting into this loop
  1327  01A5                     clrloop0:	
  1328  01A5  0180               	clrf	0	;clear RAM location pointed to by FSR
  1329  01A6  3101               	addfsr 0,1
  1330  01A7  0B89               	decfsz	9,f	;Have we reached the end of clearing yet?
  1331  01A8  29A5               	goto	clrloop0	;have we reached the end yet?
  1332  01A9  3400               	retlw	0	;all done for this memory range, return
  1333                           
  1334                           	psect	cstackCOMMON
  1335  0070                     __pcstackCOMMON:	
  1336  0070                     ?_Slave_Interrupt:	
  1337  0070                     ??_Slave_Interrupt:	
  1338                           ; 1 bytes @ 0x0
  1339                           
  1340  0070                     ?_UART_Interrupt:	
  1341                           ; 1 bytes @ 0x0
  1342                           
  1343  0070                     ??_UART_Interrupt:	
  1344                           ; 1 bytes @ 0x0
  1345                           
  1346  0070                     ?_Timer0_Interrupt:	
  1347                           ; 1 bytes @ 0x0
  1348                           
  1349  0070                     ??_Timer0_Interrupt:	
  1350                           ; 1 bytes @ 0x0
  1351                           
  1352  0070                     ?_ad_init:	
  1353                           ; 1 bytes @ 0x0
  1354                           
  1355  0070                     ?_function:	
  1356                           ; 1 bytes @ 0x0
  1357                           
  1358  0070                     ?_FirstInit:	
  1359                           ; 1 bytes @ 0x0
  1360                           
  1361  0070                     ?_PWMInit:	
  1362                           ; 1 bytes @ 0x0
  1363                           
  1364  0070                     ?_main:	
  1365                           ; 1 bytes @ 0x0
  1366                           
  1367                           
  1368                           ; 1 bytes @ 0x0
  1369  0070                     	ds	1
  1370  0071                     Slave_Interrupt@x:	
  1371                           
  1372                           ; 1 bytes @ 0x1
  1373  0071                     	ds	1
  1374  0072                     ??_function:	
  1375                           
  1376                           ; 1 bytes @ 0x2
  1377  0072                     	ds	1
  1378  0073                     ?_InitI2C_Slave:	
  1379  0073                     ??_ad_init:	
  1380                           ; 1 bytes @ 0x3
  1381                           
  1382  0073                     ??_FirstInit:	
  1383                           ; 1 bytes @ 0x3
  1384                           
  1385  0073                     ??_PWMInit:	
  1386                           ; 1 bytes @ 0x3
  1387                           
  1388  0073                     ?_PWMConfig:	
  1389                           ; 1 bytes @ 0x3
  1390                           
  1391  0073                     PWMConfig@pwm:	
  1392                           ; 1 bytes @ 0x3
  1393                           
  1394  0073                     InitI2C_Slave@address:	
  1395                           ; 1 bytes @ 0x3
  1396                           
  1397                           
  1398                           ; 2 bytes @ 0x3
  1399  0073                     	ds	1
  1400  0074                     ??_PWMConfig:	
  1401  0074                     ad_init@AN_A:	
  1402                           ; 1 bytes @ 0x4
  1403                           
  1404  0074                     PWMConfig@turn:	
  1405                           ; 1 bytes @ 0x4
  1406                           
  1407                           
  1408                           ; 1 bytes @ 0x4
  1409  0074                     	ds	1
  1410  0075                     ??_InitI2C_Slave:	
  1411  0075                     ad_init@AN_B:	
  1412                           ; 1 bytes @ 0x5
  1413                           
  1414                           
  1415                           ; 1 bytes @ 0x5
  1416  0075                     	ds	1
  1417                           
  1418                           	psect	cstackBANK0
  1419  0036                     __pcstackBANK0:	
  1420  0036                     ??_main:	
  1421                           
  1422                           ; 1 bytes @ 0x0
  1423  0036                     	ds	2
  1424  0038                     main@cnt:	
  1425                           
  1426                           ; 1 bytes @ 0x2
  1427  0038                     	ds	1
  1428  0039                     main@speed:	
  1429                           
  1430                           ; 1 bytes @ 0x3
  1431  0039                     	ds	1
  1432                           
  1433                           	psect	maintext
  1434  0027                     __pmaintext:	
  1435 ;;
  1436 ;;Main: autosize = 0, tempsize = 2, incstack = 0, save=0
  1437 ;;
  1438 ;; *************** function _main *****************
  1439 ;; Defined at:
  1440 ;;		line 39 in file "../main.c"
  1441 ;; Parameters:    Size  Location     Type
  1442 ;;		None
  1443 ;; Auto vars:     Size  Location     Type
  1444 ;;  speed           1    3[BANK0 ] unsigned char 
  1445 ;;  cnt             1    2[BANK0 ] unsigned char 
  1446 ;; Return value:  Size  Location     Type
  1447 ;;                  1    wreg      void 
  1448 ;; Registers used:
  1449 ;;		wreg, status,2, status,0, pclath, cstack
  1450 ;; Tracked objects:
  1451 ;;		On entry : B1F/0
  1452 ;;		On exit  : 0/0
  1453 ;;		Unchanged: 0/0
  1454 ;; Data sizes:     COMMON   BANK0   BANK1   BANK2   BANK3   BANK4   BANK5   BANK6   BANK7   BANK8   BANK9  BANK10  BANK1
      +1  BANK12
  1455 ;;      Params:         0       0       0       0       0       0       0       0       0       0       0       0       
      +0       0
  1456 ;;      Locals:         0       2       0       0       0       0       0       0       0       0       0       0       
      +0       0
  1457 ;;      Temps:          0       2       0       0       0       0       0       0       0       0       0       0       
      +0       0
  1458 ;;      Totals:         0       4       0       0       0       0       0       0       0       0       0       0       
      +0       0
  1459 ;;Total ram usage:        4 bytes
  1460 ;; Hardware stack levels required when called:    3
  1461 ;; This function calls:
  1462 ;;		_FirstInit
  1463 ;;		_InitI2C_Slave
  1464 ;;		_PWMConfig
  1465 ;;		_PWMInit
  1466 ;;		_ad_init
  1467 ;; This function is called by:
  1468 ;;		Startup code after reset
  1469 ;; This function uses a non-reentrant model
  1470 ;;
  1471                           
  1472                           
  1473                           ;psect for function _main
  1474  0027                     _main:	
  1475                           
  1476                           ;main.c: 41: FirstInit();
  1477                           
  1478                           ;incstack = 0
  1479                           ; Regs used in _main: [wreg+status,2+status,0+pclath+cstack]
  1480  0027  3181  214A  3180   	fcall	_FirstInit
  1481                           
  1482                           ;main.c: 42: PWMInit();
  1483  002A  3181  2190  3180   	fcall	_PWMInit
  1484                           
  1485                           ;main.c: 43: ad_init();
  1486  002D  3181  217A  3180   	fcall	_ad_init
  1487                           
  1488                           ;main.c: 44: InitI2C_Slave(0x40);
  1489  0030  3040               	movlw	64
  1490  0031  00F3               	movwf	InitI2C_Slave@address
  1491  0032  3000               	movlw	0
  1492  0033  00F4               	movwf	InitI2C_Slave@address+1
  1493  0034  3181  2130  3180   	fcall	_InitI2C_Slave
  1494                           
  1495                           ;main.c: 46: char speed;
  1496                           ;main.c: 47: char cnt;
  1497                           ;main.c: 49: for (cnt=0;cnt<3;cnt++){
  1498  0037  0020               	movlb	0	; select bank0
  1499  0038  01B8               	clrf	main@cnt
  1500  0039                     L1:	
  1501  0039  3003               	movlw	3
  1502  003A  0238               	subwf	main@cnt,w
  1503  003B  1803               	btfsc	3,0
  1504  003C  2881               	goto	l1587
  1505                           
  1506                           ;main.c: 50: LATA3 = 1;
  1507  003D  0022               	movlb	2	; select bank2
  1508  003E  158C               	bsf	12,3	;volatile
  1509                           
  1510                           ;main.c: 51: _delay((unsigned long)((100)*(32000000/4000.0)));
  1511  003F  3005               	movlw	5
  1512  0040  0020               	movlb	0	; select bank0
  1513  0041  00B7               	movwf	??_main+1
  1514  0042  300F               	movlw	15
  1515  0043  00B6               	movwf	??_main
  1516  0044  30F1               	movlw	241
  1517  0045                     u797:	
  1518  0045  0B89               	decfsz	9,f
  1519  0046  2845               	goto	u797
  1520  0047  0BB6               	decfsz	??_main,f
  1521  0048  2845               	goto	u797
  1522  0049  0BB7               	decfsz	??_main+1,f
  1523  004A  2845               	goto	u797
  1524                           
  1525                           ;main.c: 52: LATA3 = 0;
  1526  004B  0022               	movlb	2	; select bank2
  1527  004C  118C               	bcf	12,3	;volatile
  1528                           
  1529                           ;main.c: 53: _delay((unsigned long)((100)*(32000000/4000.0)));
  1530  004D  3005               	movlw	5
  1531  004E  0020               	movlb	0	; select bank0
  1532  004F  00B7               	movwf	??_main+1
  1533  0050  300F               	movlw	15
  1534  0051  00B6               	movwf	??_main
  1535  0052  30F1               	movlw	241
  1536  0053                     u807:	
  1537  0053  0B89               	decfsz	9,f
  1538  0054  2853               	goto	u807
  1539  0055  0BB6               	decfsz	??_main,f
  1540  0056  2853               	goto	u807
  1541  0057  0BB7               	decfsz	??_main+1,f
  1542  0058  2853               	goto	u807
  1543  0059  3001               	movlw	1
  1544  005A  0020               	movlb	0	; select bank0
  1545  005B  00B6               	movwf	??_main
  1546  005C  0836               	movf	??_main,w
  1547  005D  07B8               	addwf	main@cnt,f
  1548  005E  2839               	goto	L1
  1549  005F                     l1591:	
  1550                           
  1551                           ;main.c: 63: PWMConfig(0x01, speed);
  1552  005F  0839               	movf	main@speed,w
  1553  0060  00B6               	movwf	??_main
  1554  0061  0836               	movf	??_main,w
  1555  0062  00F3               	movwf	PWMConfig@pwm
  1556  0063  3001               	movlw	1
  1557  0064  3180  20FE  3180   	fcall	_PWMConfig
  1558                           
  1559                           ;main.c: 64: LATA3 = 1;
  1560  0067  0022               	movlb	2	; select bank2
  1561  0068  158C               	bsf	12,3	;volatile
  1562  0069  28A2               	goto	L2
  1563  006A                     l1599:	
  1564                           ;main.c: 66: }
  1565                           
  1566                           ;main.c: 65: LATA4 = 0;
  1567                           
  1568                           
  1569                           ;main.c: 68: PWMConfig(0x02, speed);
  1570  006A  0839               	movf	main@speed,w
  1571  006B  00B6               	movwf	??_main
  1572  006C  0836               	movf	??_main,w
  1573  006D  00F3               	movwf	PWMConfig@pwm
  1574  006E  3002               	movlw	2
  1575  006F  3180  20FE  3180   	fcall	_PWMConfig
  1576                           
  1577                           ;main.c: 69: LATA4 = 1;
  1578  0072  0022               	movlb	2	; select bank2
  1579  0073  160C               	bsf	12,4	;volatile
  1580                           
  1581                           ;main.c: 70: LATA3 = 0;
  1582  0074  118C               	bcf	12,3	;volatile
  1583                           
  1584                           ;main.c: 71: }
  1585  0075  2881               	goto	l1587
  1586  0076                     l1607:	
  1587                           
  1588                           ;main.c: 73: PWMConfig(0x03, speed);
  1589  0076  0839               	movf	main@speed,w
  1590  0077  00B6               	movwf	??_main
  1591  0078  0836               	movf	??_main,w
  1592  0079  00F3               	movwf	PWMConfig@pwm
  1593  007A  3003               	movlw	3
  1594  007B  3180  20FE  3180   	fcall	_PWMConfig
  1595                           
  1596                           ;main.c: 74: LATA4 = 1;
  1597  007E  0022               	movlb	2	; select bank2
  1598  007F  160C               	bsf	12,4	;volatile
  1599                           
  1600                           ;main.c: 75: LATA3 = 1;
  1601  0080  158C               	bsf	12,3	;volatile
  1602  0081                     l1587:	
  1603                           ;main.c: 54: }
  1604                           ;main.c: 57: while(1)
  1605                           
  1606                           ;main.c: 76: }
  1607                           
  1608                           
  1609                           ;main.c: 58: {
  1610                           ;main.c: 59: snd_data[0] = rcv_data[0];
  1611  0081  0020               	movlb	0	; select bank0
  1612  0082  082E               	movf	_rcv_data,w
  1613  0083  00B6               	movwf	??_main
  1614  0084  0836               	movf	??_main,w
  1615  0085  00A6               	movwf	_snd_data
  1616                           
  1617                           ;main.c: 60: speed = rcv_data[1];
  1618  0086  082F               	movf	_rcv_data+1,w
  1619  0087  00B6               	movwf	??_main
  1620  0088  0836               	movf	??_main,w
  1621  0089  00B9               	movwf	main@speed
  1622                           
  1623                           ;main.c: 62: if(rcv_data[0] == 0x01){
  1624  008A  032E               	decf	_rcv_data,w
  1625  008B  1903               	btfsc	3,2
  1626  008C  285F               	goto	l1591
  1627                           
  1628                           ;main.c: 67: else if(rcv_data[0] == 0x02){
  1629  008D  3002               	movlw	2
  1630  008E  0020               	movlb	0	; select bank0
  1631  008F  062E               	xorwf	_rcv_data,w
  1632  0090  1903               	btfsc	3,2
  1633  0091  286A               	goto	l1599
  1634                           
  1635                           ;main.c: 72: else if(rcv_data[0] == 0x03){
  1636  0092  3003               	movlw	3
  1637  0093  0020               	movlb	0	; select bank0
  1638  0094  062E               	xorwf	_rcv_data,w
  1639  0095  1903               	btfsc	3,2
  1640  0096  2876               	goto	l1607
  1641                           
  1642                           ;main.c: 77: else{
  1643                           ;main.c: 78: PWMConfig(0x00, 0x80);
  1644  0097  3080               	movlw	128
  1645  0098  0020               	movlb	0	; select bank0
  1646  0099  00B6               	movwf	??_main
  1647  009A  0836               	movf	??_main,w
  1648  009B  00F3               	movwf	PWMConfig@pwm
  1649  009C  3000               	movlw	0
  1650  009D  3180  20FE  3180   	fcall	_PWMConfig
  1651                           
  1652                           ;main.c: 79: LATA3 = 0;
  1653  00A0  0022               	movlb	2	; select bank2
  1654  00A1  118C               	bcf	12,3	;volatile
  1655  00A2                     L2:	
  1656                           
  1657                           ;main.c: 80: LATA4 = 0;
  1658  00A2  120C               	bcf	12,4	;volatile
  1659  00A3  2881               	goto	l1587
  1660  00A4                     __end_of_main:	
  1661                           
  1662                           	psect	text1
  1663  017A                     __ptext1:	
  1664 ;; *************** function _ad_init *****************
  1665 ;; Defined at:
  1666 ;;		line 4 in file "../AD_converter.c"
  1667 ;; Parameters:    Size  Location     Type
  1668 ;;		None
  1669 ;; Auto vars:     Size  Location     Type
  1670 ;;  AN_B            1    5[COMMON] unsigned char 
  1671 ;;  AN_A            1    4[COMMON] unsigned char 
  1672 ;; Return value:  Size  Location     Type
  1673 ;;                  1    wreg      void 
  1674 ;; Registers used:
  1675 ;;		wreg, status,2
  1676 ;; Tracked objects:
  1677 ;;		On entry : 0/0
  1678 ;;		On exit  : 0/0
  1679 ;;		Unchanged: 0/0
  1680 ;; Data sizes:     COMMON   BANK0   BANK1   BANK2   BANK3   BANK4   BANK5   BANK6   BANK7   BANK8   BANK9  BANK10  BANK1
      +1  BANK12
  1681 ;;      Params:         0       0       0       0       0       0       0       0       0       0       0       0       
      +0       0
  1682 ;;      Locals:         2       0       0       0       0       0       0       0       0       0       0       0       
      +0       0
  1683 ;;      Temps:          1       0       0       0       0       0       0       0       0       0       0       0       
      +0       0
  1684 ;;      Totals:         3       0       0       0       0       0       0       0       0       0       0       0       
      +0       0
  1685 ;;Total ram usage:        3 bytes
  1686 ;; Hardware stack levels used:    1
  1687 ;; Hardware stack levels required when called:    2
  1688 ;; This function calls:
  1689 ;;		Nothing
  1690 ;; This function is called by:
  1691 ;;		_main
  1692 ;; This function uses a non-reentrant model
  1693 ;;
  1694                           
  1695                           
  1696                           ;psect for function _ad_init
  1697  017A                     _ad_init:	
  1698                           
  1699                           ;AD_converter.c: 6: unsigned char AN_A,AN_B;
  1700                           ;AD_converter.c: 8: AN_A = 0b001111;
  1701                           
  1702                           ;incstack = 0
  1703                           ; Regs used in _ad_init: [wreg+status,2]
  1704  017A  300F               	movlw	15
  1705  017B  00F3               	movwf	??_ad_init
  1706  017C  0873               	movf	??_ad_init,w
  1707  017D  00F4               	movwf	ad_init@AN_A
  1708                           
  1709                           ;AD_converter.c: 11: AN_B = 0x000000;
  1710  017E  01F5               	clrf	ad_init@AN_B
  1711                           
  1712                           ;AD_converter.c: 14: ANSELA = AN_A;
  1713  017F  0874               	movf	ad_init@AN_A,w
  1714  0180  0023               	movlb	3	; select bank3
  1715  0181  008C               	movwf	12	;volatile
  1716                           
  1717                           ;AD_converter.c: 15: ANSELB = AN_B;
  1718  0182  0875               	movf	ad_init@AN_B,w
  1719  0183  008D               	movwf	13	;volatile
  1720                           
  1721                           ;AD_converter.c: 17: ADCON1 = 0b10010000;
  1722  0184  3090               	movlw	144
  1723  0185  0021               	movlb	1	; select bank1
  1724  0186  009E               	movwf	30	;volatile
  1725                           
  1726                           ;AD_converter.c: 18: _delay((unsigned long)((10)*(32000000/4000.0)));
  1727  0187  3068               	movlw	104
  1728  0188  00F3               	movwf	??_ad_init
  1729  0189  30E4               	movlw	228
  1730  018A                     u817:	
  1731  018A  0B89               	decfsz	9,f
  1732  018B  298A               	goto	u817
  1733  018C  0BF3               	decfsz	??_ad_init,f
  1734  018D  298A               	goto	u817
  1735  018E  3200               	nop2
  1736  018F  0008               	return
  1737  0190                     __end_of_ad_init:	
  1738                           
  1739                           	psect	text2
  1740  0190                     __ptext2:	
  1741 ;; *************** function _PWMInit *****************
  1742 ;; Defined at:
  1743 ;;		line 24 in file "../Motor_Control.c"
  1744 ;; Parameters:    Size  Location     Type
  1745 ;;		None
  1746 ;; Auto vars:     Size  Location     Type
  1747 ;;		None
  1748 ;; Return value:  Size  Location     Type
  1749 ;;                  1    wreg      void 
  1750 ;; Registers used:
  1751 ;;		wreg, status,2
  1752 ;; Tracked objects:
  1753 ;;		On entry : 0/0
  1754 ;;		On exit  : 0/0
  1755 ;;		Unchanged: 0/0
  1756 ;; Data sizes:     COMMON   BANK0   BANK1   BANK2   BANK3   BANK4   BANK5   BANK6   BANK7   BANK8   BANK9  BANK10  BANK1
      +1  BANK12
  1757 ;;      Params:         0       0       0       0       0       0       0       0       0       0       0       0       
      +0       0
  1758 ;;      Locals:         0       0       0       0       0       0       0       0       0       0       0       0       
      +0       0
  1759 ;;      Temps:          0       0       0       0       0       0       0       0       0       0       0       0       
      +0       0
  1760 ;;      Totals:         0       0       0       0       0       0       0       0       0       0       0       0       
      +0       0
  1761 ;;Total ram usage:        0 bytes
  1762 ;; Hardware stack levels used:    1
  1763 ;; Hardware stack levels required when called:    2
  1764 ;; This function calls:
  1765 ;;		Nothing
  1766 ;; This function is called by:
  1767 ;;		_main
  1768 ;; This function uses a non-reentrant model
  1769 ;;
  1770                           
  1771                           
  1772                           ;psect for function _PWMInit
  1773  0190                     _PWMInit:	
  1774                           
  1775                           ;Motor_Control.c: 28: CCPTMRS0 = 0b00000000;
  1776                           
  1777                           ;incstack = 0
  1778                           ; Regs used in _PWMInit: [wreg+status,2]
  1779  0190  0025               	movlb	5	; select bank5
  1780  0191  019E               	clrf	30	;volatile
  1781                           
  1782                           ;Motor_Control.c: 29: PR2 = 0xFF;
  1783  0192  30FF               	movlw	255
  1784  0193  0020               	movlb	0	; select bank0
  1785  0194  009B               	movwf	27	;volatile
  1786                           
  1787                           ;Motor_Control.c: 30: T2CON = 0b00000111;
  1788  0195  3007               	movlw	7
  1789  0196  009C               	movwf	28	;volatile
  1790                           
  1791                           ;Motor_Control.c: 31: CCP1CON = 0b00001100;
  1792  0197  300C               	movlw	12
  1793  0198  0025               	movlb	5	; select bank5
  1794  0199  0093               	movwf	19	;volatile
  1795                           
  1796                           ;Motor_Control.c: 34: PSTR1CON = 0b00000001;
  1797  019A  3001               	movlw	1
  1798  019B  0096               	movwf	22	;volatile
  1799  019C  0008               	return
  1800  019D                     __end_of_PWMInit:	
  1801                           
  1802                           	psect	text3
  1803  00FE                     __ptext3:	
  1804 ;; *************** function _PWMConfig *****************
  1805 ;; Defined at:
  1806 ;;		line 39 in file "../Motor_Control.c"
  1807 ;; Parameters:    Size  Location     Type
  1808 ;;  turn            1    wreg     unsigned char 
  1809 ;;  pwm             1    3[COMMON] unsigned char 
  1810 ;; Auto vars:     Size  Location     Type
  1811 ;;  turn            1    4[COMMON] unsigned char 
  1812 ;; Return value:  Size  Location     Type
  1813 ;;                  1    wreg      void 
  1814 ;; Registers used:
  1815 ;;		wreg, status,2, status,0
  1816 ;; Tracked objects:
  1817 ;;		On entry : 0/0
  1818 ;;		On exit  : 0/0
  1819 ;;		Unchanged: 0/0
  1820 ;; Data sizes:     COMMON   BANK0   BANK1   BANK2   BANK3   BANK4   BANK5   BANK6   BANK7   BANK8   BANK9  BANK10  BANK1
      +1  BANK12
  1821 ;;      Params:         1       0       0       0       0       0       0       0       0       0       0       0       
      +0       0
  1822 ;;      Locals:         1       0       0       0       0       0       0       0       0       0       0       0       
      +0       0
  1823 ;;      Temps:          0       0       0       0       0       0       0       0       0       0       0       0       
      +0       0
  1824 ;;      Totals:         2       0       0       0       0       0       0       0       0       0       0       0       
      +0       0
  1825 ;;Total ram usage:        2 bytes
  1826 ;; Hardware stack levels used:    1
  1827 ;; Hardware stack levels required when called:    2
  1828 ;; This function calls:
  1829 ;;		Nothing
  1830 ;; This function is called by:
  1831 ;;		_main
  1832 ;; This function uses a non-reentrant model
  1833 ;;
  1834                           
  1835                           
  1836                           ;psect for function _PWMConfig
  1837  00FE                     _PWMConfig:	
  1838                           
  1839                           ;incstack = 0
  1840                           ; Regs used in _PWMConfig: [wreg+status,2+status,0]
  1841                           ;PWMConfig@turn stored from wreg
  1842  00FE  00F4               	movwf	PWMConfig@turn
  1843                           
  1844                           ;Motor_Control.c: 50: if(turn==0x03){
  1845  00FF  3003               	movlw	3
  1846  0100  0674               	xorwf	PWMConfig@turn,w
  1847  0101  1D03               	btfss	3,2
  1848  0102  290F               	goto	l1533
  1849                           
  1850                           ;Motor_Control.c: 52: RC2 = 0;
  1851  0103  0020               	movlb	0	; select bank0
  1852  0104  110E               	bcf	14,2	;volatile
  1853                           
  1854                           ;Motor_Control.c: 53: RB2 = 0;
  1855  0105  110D               	bcf	13,2	;volatile
  1856                           
  1857                           ;Motor_Control.c: 54: RB1 = 0;
  1858  0106  108D               	bcf	13,1	;volatile
  1859                           
  1860                           ;Motor_Control.c: 55: RB4 = 0;
  1861  0107  120D               	bcf	13,4	;volatile
  1862                           
  1863                           ;Motor_Control.c: 56: RC2 = 0;
  1864  0108  110E               	bcf	14,2	;volatile
  1865                           
  1866                           ;Motor_Control.c: 57: RB0 = 1;
  1867  0109  140D               	bsf	13,0	;volatile
  1868                           
  1869                           ;Motor_Control.c: 58: RB1 = 1;
  1870  010A  148D               	bsf	13,1	;volatile
  1871                           
  1872                           ;Motor_Control.c: 59: RB4 = 0;
  1873  010B  120D               	bcf	13,4	;volatile
  1874                           
  1875                           ;Motor_Control.c: 60: CCPR1L = 0x00;
  1876  010C  0025               	movlb	5	; select bank5
  1877  010D  0191               	clrf	17	;volatile
  1878                           
  1879                           ;Motor_Control.c: 61: }
  1880  010E  0008               	return
  1881  010F                     l1533:	
  1882                           
  1883                           ;Motor_Control.c: 62: else if(turn==0x01){
  1884  010F  0374               	decf	PWMConfig@turn,w
  1885  0110  1D03               	btfss	3,2
  1886  0111  291B               	goto	l1539
  1887                           
  1888                           ;Motor_Control.c: 64: RC2 = 0;
  1889  0112  0020               	movlb	0	; select bank0
  1890  0113  110E               	bcf	14,2	;volatile
  1891                           
  1892                           ;Motor_Control.c: 65: RB0 = 1;
  1893  0114  140D               	bsf	13,0	;volatile
  1894                           
  1895                           ;Motor_Control.c: 66: RB1 = 0;
  1896  0115  108D               	bcf	13,1	;volatile
  1897                           
  1898                           ;Motor_Control.c: 67: RB4 = 1;
  1899  0116  160D               	bsf	13,4	;volatile
  1900                           
  1901                           ;Motor_Control.c: 68: CCPR1L = pwm;
  1902  0117  0873               	movf	PWMConfig@pwm,w
  1903  0118  0025               	movlb	5	; select bank5
  1904  0119  0091               	movwf	17	;volatile
  1905                           
  1906                           ;Motor_Control.c: 69: }
  1907  011A  0008               	return
  1908  011B                     l1539:	
  1909                           
  1910                           ;Motor_Control.c: 70: else if(turn==0x02){
  1911  011B  3002               	movlw	2
  1912  011C  0674               	xorwf	PWMConfig@turn,w
  1913  011D  1D03               	btfss	3,2
  1914  011E  2928               	goto	l153
  1915                           
  1916                           ;Motor_Control.c: 71: RC2 = 0;
  1917  011F  0020               	movlb	0	; select bank0
  1918  0120  110E               	bcf	14,2	;volatile
  1919                           
  1920                           ;Motor_Control.c: 72: RB0 = 0;
  1921  0121  100D               	bcf	13,0	;volatile
  1922                           
  1923                           ;Motor_Control.c: 73: RB1 = 1;
  1924  0122  148D               	bsf	13,1	;volatile
  1925                           
  1926                           ;Motor_Control.c: 74: RB4 = 1;
  1927  0123  160D               	bsf	13,4	;volatile
  1928                           
  1929                           ;Motor_Control.c: 75: CCPR1L = pwm;
  1930  0124  0873               	movf	PWMConfig@pwm,w
  1931  0125  0025               	movlb	5	; select bank5
  1932  0126  0091               	movwf	17	;volatile
  1933                           
  1934                           ;Motor_Control.c: 76: }
  1935  0127  0008               	return
  1936  0128                     l153:	
  1937                           
  1938                           ;Motor_Control.c: 77: else{
  1939                           ;Motor_Control.c: 79: RC2 = 0;
  1940  0128  0020               	movlb	0	; select bank0
  1941  0129  110E               	bcf	14,2	;volatile
  1942                           
  1943                           ;Motor_Control.c: 80: RB0 = 0;
  1944  012A  100D               	bcf	13,0	;volatile
  1945                           
  1946                           ;Motor_Control.c: 81: RB1 = 0;
  1947  012B  108D               	bcf	13,1	;volatile
  1948                           
  1949                           ;Motor_Control.c: 82: RB4 = 0;
  1950  012C  120D               	bcf	13,4	;volatile
  1951                           
  1952                           ;Motor_Control.c: 83: CCPR1L = 0x00;
  1953  012D  0025               	movlb	5	; select bank5
  1954  012E  0191               	clrf	17	;volatile
  1955  012F  0008               	return
  1956  0130                     __end_of_PWMConfig:	
  1957                           
  1958                           	psect	text4
  1959  0130                     __ptext4:	
  1960 ;; *************** function _InitI2C_Slave *****************
  1961 ;; Defined at:
  1962 ;;		line 171 in file "../skI2C.c"
  1963 ;; Parameters:    Size  Location     Type
  1964 ;;  address         2    3[COMMON] int 
  1965 ;; Auto vars:     Size  Location     Type
  1966 ;;		None
  1967 ;; Return value:  Size  Location     Type
  1968 ;;                  1    wreg      void 
  1969 ;; Registers used:
  1970 ;;		wreg, status,2, status,0
  1971 ;; Tracked objects:
  1972 ;;		On entry : 0/0
  1973 ;;		On exit  : 0/0
  1974 ;;		Unchanged: 0/0
  1975 ;; Data sizes:     COMMON   BANK0   BANK1   BANK2   BANK3   BANK4   BANK5   BANK6   BANK7   BANK8   BANK9  BANK10  BANK1
      +1  BANK12
  1976 ;;      Params:         2       0       0       0       0       0       0       0       0       0       0       0       
      +0       0
  1977 ;;      Locals:         0       0       0       0       0       0       0       0       0       0       0       0       
      +0       0
  1978 ;;      Temps:          0       0       0       0       0       0       0       0       0       0       0       0       
      +0       0
  1979 ;;      Totals:         2       0       0       0       0       0       0       0       0       0       0       0       
      +0       0
  1980 ;;Total ram usage:        2 bytes
  1981 ;; Hardware stack levels used:    1
  1982 ;; Hardware stack levels required when called:    2
  1983 ;; This function calls:
  1984 ;;		Nothing
  1985 ;; This function is called by:
  1986 ;;		_main
  1987 ;; This function uses a non-reentrant model
  1988 ;;
  1989                           
  1990                           
  1991                           ;psect for function _InitI2C_Slave
  1992  0130                     _InitI2C_Slave:	
  1993                           
  1994                           ;skI2C.c: 173: SSPSTAT= 0b10000000 ;
  1995                           
  1996                           ;incstack = 0
  1997                           ; Regs used in _InitI2C_Slave: [wreg+status,2+status,0]
  1998  0130  3080               	movlw	128
  1999  0131  0024               	movlb	4	; select bank4
  2000  0132  0094               	movwf	20	;volatile
  2001                           
  2002                           ;skI2C.c: 174: SSPCON1= 0b00100110 ;
  2003  0133  3026               	movlw	38
  2004  0134  0095               	movwf	21	;volatile
  2005                           
  2006                           ;skI2C.c: 175: SSPCON2bits.SEN = 1;
  2007  0135  1416               	bsf	22,0	;volatile
  2008                           
  2009                           ;skI2C.c: 177: SSPADD = address << 1 ;
  2010  0136  3573               	lslf	InitI2C_Slave@address,w
  2011  0137  0092               	movwf	18	;volatile
  2012                           
  2013                           ;skI2C.c: 178: SSPMSK = 0b11111110 ;
  2014  0138  30FE               	movlw	254
  2015  0139  0093               	movwf	19	;volatile
  2016                           
  2017                           ;skI2C.c: 179: SSPIE = 1 ;
  2018  013A  0021               	movlb	1	; select bank1
  2019  013B  1591               	bsf	17,3	;volatile
  2020                           
  2021                           ;skI2C.c: 180: BCLIE = 1 ;
  2022  013C  1592               	bsf	18,3	;volatile
  2023                           
  2024                           ;skI2C.c: 181: PEIE = 1 ;
  2025  013D  170B               	bsf	11,6	;volatile
  2026                           
  2027                           ;skI2C.c: 182: GIE = 1 ;
  2028  013E  178B               	bsf	11,7	;volatile
  2029                           
  2030                           ;skI2C.c: 183: SSPIF = 0 ;
  2031  013F  0020               	movlb	0	; select bank0
  2032  0140  1191               	bcf	17,3	;volatile
  2033                           
  2034                           ;skI2C.c: 184: BCLIF = 0 ;
  2035  0141  1192               	bcf	18,3	;volatile
  2036                           
  2037                           ;skI2C.c: 185: TRISC = TRISC | 0b00011000 ;
  2038  0142  0021               	movlb	1	; select bank1
  2039  0143  080E               	movf	14,w	;volatile
  2040  0144  3818               	iorlw	24
  2041  0145  008E               	movwf	14	;volatile
  2042                           
  2043                           ;skI2C.c: 186: rcv_flg = 0 ;
  2044  0146  0020               	movlb	0	; select bank0
  2045  0147  01A2               	clrf	_rcv_flg
  2046  0148  01A3               	clrf	_rcv_flg+1
  2047  0149  0008               	return
  2048  014A                     __end_of_InitI2C_Slave:	
  2049                           
  2050                           	psect	text5
  2051  014A                     __ptext5:	
  2052 ;; *************** function _FirstInit *****************
  2053 ;; Defined at:
  2054 ;;		line 11 in file "../Motor_Control.c"
  2055 ;; Parameters:    Size  Location     Type
  2056 ;;		None
  2057 ;; Auto vars:     Size  Location     Type
  2058 ;;		None
  2059 ;; Return value:  Size  Location     Type
  2060 ;;                  1    wreg      void 
  2061 ;; Registers used:
  2062 ;;		wreg, status,2
  2063 ;; Tracked objects:
  2064 ;;		On entry : 0/0
  2065 ;;		On exit  : 0/0
  2066 ;;		Unchanged: 0/0
  2067 ;; Data sizes:     COMMON   BANK0   BANK1   BANK2   BANK3   BANK4   BANK5   BANK6   BANK7   BANK8   BANK9  BANK10  BANK1
      +1  BANK12
  2068 ;;      Params:         0       0       0       0       0       0       0       0       0       0       0       0       
      +0       0
  2069 ;;      Locals:         0       0       0       0       0       0       0       0       0       0       0       0       
      +0       0
  2070 ;;      Temps:          1       0       0       0       0       0       0       0       0       0       0       0       
      +0       0
  2071 ;;      Totals:         1       0       0       0       0       0       0       0       0       0       0       0       
      +0       0
  2072 ;;Total ram usage:        1 bytes
  2073 ;; Hardware stack levels used:    1
  2074 ;; Hardware stack levels required when called:    2
  2075 ;; This function calls:
  2076 ;;		Nothing
  2077 ;; This function is called by:
  2078 ;;		_main
  2079 ;; This function uses a non-reentrant model
  2080 ;;
  2081                           
  2082                           
  2083                           ;psect for function _FirstInit
  2084  014A                     _FirstInit:	
  2085                           
  2086                           ;Motor_Control.c: 12: OSCCON = 0b01110000;
  2087                           
  2088                           ;incstack = 0
  2089                           ; Regs used in _FirstInit: [wreg+status,2]
  2090  014A  3070               	movlw	112
  2091  014B  0021               	movlb	1	; select bank1
  2092  014C  0099               	movwf	25	;volatile
  2093                           
  2094                           ;Motor_Control.c: 13: _delay((unsigned long)((10)*(32000000/4000.0)));
  2095  014D  3068               	movlw	104
  2096  014E  00F3               	movwf	??_FirstInit
  2097  014F  30E4               	movlw	228
  2098  0150                     u827:	
  2099  0150  0B89               	decfsz	9,f
  2100  0151  2950               	goto	u827
  2101  0152  0BF3               	decfsz	??_FirstInit,f
  2102  0153  2950               	goto	u827
  2103  0154  3200               	nop2
  2104                           
  2105                           ;Motor_Control.c: 14: CM1CON0 = 0x00;
  2106  0155  0022               	movlb	2	; select bank2
  2107  0156  0191               	clrf	17	;volatile
  2108                           
  2109                           ;Motor_Control.c: 15: CM1CON1 = 0x30;
  2110  0157  3030               	movlw	48
  2111  0158  0092               	movwf	18	;volatile
  2112                           
  2113                           ;Motor_Control.c: 16: TRISA = 0b00000000;
  2114  0159  0021               	movlb	1	; select bank1
  2115  015A  018C               	clrf	12	;volatile
  2116                           
  2117                           ;Motor_Control.c: 17: TRISB = 0b00000000;
  2118  015B  018D               	clrf	13	;volatile
  2119                           
  2120                           ;Motor_Control.c: 18: TRISC = 0b00011000;
  2121  015C  3018               	movlw	24
  2122  015D  008E               	movwf	14	;volatile
  2123                           
  2124                           ;Motor_Control.c: 19: PORTA = 0b00000000;
  2125  015E  0020               	movlb	0	; select bank0
  2126  015F  018C               	clrf	12	;volatile
  2127                           
  2128                           ;Motor_Control.c: 20: PORTB = 0b00000000;
  2129  0160  018D               	clrf	13	;volatile
  2130                           
  2131                           ;Motor_Control.c: 21: PORTC = 0b00000000;
  2132  0161  018E               	clrf	14	;volatile
  2133  0162  0008               	return
  2134  0163                     __end_of_FirstInit:	
  2135                           
  2136                           	psect	intentry
  2137  0004                     __pintentry:	
  2138 ;; *************** function _function *****************
  2139 ;; Defined at:
  2140 ;;		line 10 in file "../Interrput.c"
  2141 ;; Parameters:    Size  Location     Type
  2142 ;;		None
  2143 ;; Auto vars:     Size  Location     Type
  2144 ;;		None
  2145 ;; Return value:  Size  Location     Type
  2146 ;;                  1    wreg      void 
  2147 ;; Registers used:
  2148 ;;		wreg, fsr1l, fsr1h, status,2, status,0, pclath, cstack
  2149 ;; Tracked objects:
  2150 ;;		On entry : 0/0
  2151 ;;		On exit  : 0/0
  2152 ;;		Unchanged: 0/0
  2153 ;; Data sizes:     COMMON   BANK0   BANK1   BANK2   BANK3   BANK4   BANK5   BANK6   BANK7   BANK8   BANK9  BANK10  BANK1
      +1  BANK12
  2154 ;;      Params:         0       0       0       0       0       0       0       0       0       0       0       0       
      +0       0
  2155 ;;      Locals:         0       0       0       0       0       0       0       0       0       0       0       0       
      +0       0
  2156 ;;      Temps:          1       0       0       0       0       0       0       0       0       0       0       0       
      +0       0
  2157 ;;      Totals:         1       0       0       0       0       0       0       0       0       0       0       0       
      +0       0
  2158 ;;Total ram usage:        1 bytes
  2159 ;; Hardware stack levels used:    1
  2160 ;; Hardware stack levels required when called:    1
  2161 ;; This function calls:
  2162 ;;		_Slave_Interrupt
  2163 ;;		_Timer0_Interrupt
  2164 ;;		_UART_Interrupt
  2165 ;; This function is called by:
  2166 ;;		Interrupt level 1
  2167 ;; This function uses a non-reentrant model
  2168 ;;
  2169                           
  2170  0004                     _function:	
  2171                           
  2172                           ;incstack = 0
  2173  0004  147E               	bsf	126,0	;set compiler interrupt flag (level 1)
  2174                           
  2175                           ; Regs used in _function: [wreg+fsr1l+fsr1h+status,2+status,0+pclath+cstack]
  2176  0005  3180               	pagesel	$
  2177  0006  0020               	movlb	0	; select bank0
  2178  0007  087F               	movf	127,w
  2179  0008  00F2               	movwf	??_function
  2180                           
  2181                           ;Interrput.c: 12: Slave_Interrupt();
  2182  0009  3180  20A4  3180   	fcall	_Slave_Interrupt
  2183                           
  2184                           ;Interrput.c: 13: UART_Interrupt();
  2185  000C  3181  2163  3180   	fcall	_UART_Interrupt
  2186                           
  2187                           ;Interrput.c: 14: Timer0_Interrupt();
  2188  000F  3181  219D         	fcall	_Timer0_Interrupt
  2189  0011  0872               	movf	??_function,w
  2190  0012  0020               	movlb	0	; select bank0
  2191  0013  00FF               	movwf	127
  2192  0014  107E               	bcf	126,0	;clear compiler interrupt flag (level 1)
  2193  0015  0009               	retfie
  2194  0016                     __end_of_function:	
  2195                           
  2196                           	psect	text7
  2197  0163                     __ptext7:	
  2198 ;; *************** function _UART_Interrupt *****************
  2199 ;; Defined at:
  2200 ;;		line 45 in file "../UART.c"
  2201 ;; Parameters:    Size  Location     Type
  2202 ;;		None
  2203 ;; Auto vars:     Size  Location     Type
  2204 ;;		None
  2205 ;; Return value:  Size  Location     Type
  2206 ;;                  1    wreg      void 
  2207 ;; Registers used:
  2208 ;;		wreg
  2209 ;; Tracked objects:
  2210 ;;		On entry : 0/0
  2211 ;;		On exit  : 0/0
  2212 ;;		Unchanged: 0/0
  2213 ;; Data sizes:     COMMON   BANK0   BANK1   BANK2   BANK3   BANK4   BANK5   BANK6   BANK7   BANK8   BANK9  BANK10  BANK1
      +1  BANK12
  2214 ;;      Params:         0       0       0       0       0       0       0       0       0       0       0       0       
      +0       0
  2215 ;;      Locals:         0       0       0       0       0       0       0       0       0       0       0       0       
      +0       0
  2216 ;;      Temps:          1       0       0       0       0       0       0       0       0       0       0       0       
      +0       0
  2217 ;;      Totals:         1       0       0       0       0       0       0       0       0       0       0       0       
      +0       0
  2218 ;;Total ram usage:        1 bytes
  2219 ;; Hardware stack levels used:    1
  2220 ;; This function calls:
  2221 ;;		Nothing
  2222 ;; This function is called by:
  2223 ;;		_function
  2224 ;; This function uses a non-reentrant model
  2225 ;;
  2226                           
  2227                           
  2228                           ;psect for function _UART_Interrupt
  2229  0163                     _UART_Interrupt:	
  2230                           
  2231                           ;UART.c: 47: if(RCIF == 1){
  2232                           
  2233                           ;incstack = 0
  2234                           ; Regs used in _UART_Interrupt: [wreg]
  2235  0163  0020               	movlb	0	; select bank0
  2236  0164  1E91               	btfss	17,5	;volatile
  2237  0165  0008               	return
  2238                           
  2239                           ;UART.c: 48: RCIF = 0;
  2240  0166  1291               	bcf	17,5	;volatile
  2241                           
  2242                           ;UART.c: 49: RCV_Buff = RCREG;
  2243  0167  0023               	movlb	3	; select bank3
  2244  0168  0819               	movf	25,w	;volatile
  2245  0169  00F0               	movwf	??_UART_Interrupt
  2246  016A  0870               	movf	??_UART_Interrupt,w
  2247  016B  00F9               	movwf	_RCV_Buff
  2248                           
  2249                           ;UART.c: 51: if('a' <= RCV_Buff && RCV_Buff <= 'z'){
  2250  016C  3061               	movlw	97
  2251  016D  0279               	subwf	_RCV_Buff,w
  2252  016E  1C03               	skipc
  2253  016F  0008               	return
  2254  0170  307B               	movlw	123
  2255  0171  0279               	subwf	_RCV_Buff,w
  2256  0172  1803               	skipnc
  2257  0173  0008               	return
  2258                           
  2259                           ;UART.c: 52: UART_data = RCV_Buff;
  2260  0174  0879               	movf	_RCV_Buff,w
  2261  0175  00F0               	movwf	??_UART_Interrupt
  2262  0176  0870               	movf	??_UART_Interrupt,w
  2263  0177  0020               	movlb	0	; select bank0
  2264  0178  00A5               	movwf	_UART_data
  2265  0179  0008               	return
  2266  017A                     __end_of_UART_Interrupt:	
  2267                           
  2268                           	psect	text8
  2269  019D                     __ptext8:	
  2270 ;; *************** function _Timer0_Interrupt *****************
  2271 ;; Defined at:
  2272 ;;		line 11 in file "../Interrupt_Timer0.c"
  2273 ;; Parameters:    Size  Location     Type
  2274 ;;		None
  2275 ;; Auto vars:     Size  Location     Type
  2276 ;;		None
  2277 ;; Return value:  Size  Location     Type
  2278 ;;                  1    wreg      void 
  2279 ;; Registers used:
  2280 ;;		wreg
  2281 ;; Tracked objects:
  2282 ;;		On entry : 0/0
  2283 ;;		On exit  : 0/0
  2284 ;;		Unchanged: 0/0
  2285 ;; Data sizes:     COMMON   BANK0   BANK1   BANK2   BANK3   BANK4   BANK5   BANK6   BANK7   BANK8   BANK9  BANK10  BANK1
      +1  BANK12
  2286 ;;      Params:         0       0       0       0       0       0       0       0       0       0       0       0       
      +0       0
  2287 ;;      Locals:         0       0       0       0       0       0       0       0       0       0       0       0       
      +0       0
  2288 ;;      Temps:          0       0       0       0       0       0       0       0       0       0       0       0       
      +0       0
  2289 ;;      Totals:         0       0       0       0       0       0       0       0       0       0       0       0       
      +0       0
  2290 ;;Total ram usage:        0 bytes
  2291 ;; Hardware stack levels used:    1
  2292 ;; This function calls:
  2293 ;;		Nothing
  2294 ;; This function is called by:
  2295 ;;		_function
  2296 ;; This function uses a non-reentrant model
  2297 ;;
  2298                           
  2299                           
  2300                           ;psect for function _Timer0_Interrupt
  2301  019D                     _Timer0_Interrupt:	
  2302                           
  2303                           ;Interrupt_Timer0.c: 13: if(TMR0IF == 1){
  2304                           
  2305                           ;incstack = 0
  2306                           ; Regs used in _Timer0_Interrupt: [wreg]
  2307  019D  1D0B               	btfss	11,2	;volatile
  2308  019E  0008               	return
  2309                           
  2310                           ;Interrupt_Timer0.c: 14: TMR0 = 131;
  2311  019F  3083               	movlw	131
  2312  01A0  0020               	movlb	0	; select bank0
  2313  01A1  0095               	movwf	21	;volatile
  2314                           
  2315                           ;Interrupt_Timer0.c: 15: TMR0IF = 0;
  2316  01A2  110B               	bcf	11,2	;volatile
  2317  01A3  0008               	return
  2318  01A4                     __end_of_Timer0_Interrupt:	
  2319                           
  2320                           	psect	text9
  2321  00A4                     __ptext9:	
  2322 ;; *************** function _Slave_Interrupt *****************
  2323 ;; Defined at:
  2324 ;;		line 194 in file "../skI2C.c"
  2325 ;; Parameters:    Size  Location     Type
  2326 ;;		None
  2327 ;; Auto vars:     Size  Location     Type
  2328 ;;  x               1    1[COMMON] unsigned char 
  2329 ;; Return value:  Size  Location     Type
  2330 ;;                  1    wreg      void 
  2331 ;; Registers used:
  2332 ;;		wreg, fsr1l, fsr1h, status,2, status,0
  2333 ;; Tracked objects:
  2334 ;;		On entry : 0/0
  2335 ;;		On exit  : 0/0
  2336 ;;		Unchanged: 0/0
  2337 ;; Data sizes:     COMMON   BANK0   BANK1   BANK2   BANK3   BANK4   BANK5   BANK6   BANK7   BANK8   BANK9  BANK10  BANK1
      +1  BANK12
  2338 ;;      Params:         0       0       0       0       0       0       0       0       0       0       0       0       
      +0       0
  2339 ;;      Locals:         1       0       0       0       0       0       0       0       0       0       0       0       
      +0       0
  2340 ;;      Temps:          1       0       0       0       0       0       0       0       0       0       0       0       
      +0       0
  2341 ;;      Totals:         2       0       0       0       0       0       0       0       0       0       0       0       
      +0       0
  2342 ;;Total ram usage:        2 bytes
  2343 ;; Hardware stack levels used:    1
  2344 ;; This function calls:
  2345 ;;		Nothing
  2346 ;; This function is called by:
  2347 ;;		_function
  2348 ;; This function uses a non-reentrant model
  2349 ;;
  2350                           
  2351                           
  2352                           ;psect for function _Slave_Interrupt
  2353  00A4                     _Slave_Interrupt:	
  2354                           
  2355                           ;skI2C.c: 196: char x ;
  2356                           ;skI2C.c: 199: if (SSPIF == 1) {
  2357                           
  2358                           ;incstack = 0
  2359                           ; Regs used in _Slave_Interrupt: [wreg+fsr1l+fsr1h+status,2+status,0]
  2360  00A4  0020               	movlb	0	; select bank0
  2361  00A5  1D91               	btfss	17,3	;volatile
  2362  00A6  28F9               	goto	i1l340
  2363                           
  2364                           ;skI2C.c: 200: if (SSPSTATbits.R_nW == 0) {
  2365  00A7  0024               	movlb	4	; select bank4
  2366  00A8  1914               	btfsc	20,2	;volatile
  2367  00A9  28CC               	goto	i1l341
  2368                           
  2369                           ;skI2C.c: 202: if (SSPSTATbits.D_nA == 0) {
  2370  00AA  1A94               	btfsc	20,5	;volatile
  2371  00AB  28BA               	goto	i1l1231
  2372                           
  2373                           ;skI2C.c: 204: Rdtp = (char *)rcv_data ;
  2374  00AC  302E               	movlw	(low (_rcv_data| 0))& (0+255)
  2375  00AD  00F0               	movwf	??_Slave_Interrupt
  2376  00AE  0870               	movf	??_Slave_Interrupt,w
  2377  00AF  0020               	movlb	0	; select bank0
  2378  00B0  00A4               	movwf	_Rdtp
  2379                           
  2380                           ;skI2C.c: 205: x = SSPBUF ;
  2381  00B1  0024               	movlb	4	; select bank4
  2382  00B2  0811               	movf	17,w	;volatile
  2383  00B3  00F0               	movwf	??_Slave_Interrupt
  2384  00B4  0870               	movf	??_Slave_Interrupt,w
  2385  00B5  00F1               	movwf	Slave_Interrupt@x
  2386                           
  2387                           ;skI2C.c: 206: rcv_flg = 0 ;
  2388  00B6  0020               	movlb	0	; select bank0
  2389  00B7  01A2               	clrf	_rcv_flg
  2390  00B8  01A3               	clrf	_rcv_flg+1
  2391                           
  2392                           ;skI2C.c: 207: } else {
  2393  00B9  28F3               	goto	L3
  2394  00BA                     i1l1231:	
  2395                           
  2396                           ;skI2C.c: 209: *Rdtp = SSPBUF ;
  2397  00BA  0024               	movlb	4	; select bank4
  2398  00BB  0811               	movf	17,w	;volatile
  2399  00BC  00F0               	movwf	??_Slave_Interrupt
  2400  00BD  0020               	movlb	0	; select bank0
  2401  00BE  0824               	movf	_Rdtp,w
  2402  00BF  0086               	movwf	6
  2403  00C0  0187               	clrf	7
  2404  00C1  0870               	movf	??_Slave_Interrupt,w
  2405  00C2  0081               	movwf	1
  2406                           
  2407                           ;skI2C.c: 210: Rdtp++ ;
  2408  00C3  3001               	movlw	1
  2409  00C4  00F0               	movwf	??_Slave_Interrupt
  2410  00C5  0870               	movf	??_Slave_Interrupt,w
  2411  00C6  07A4               	addwf	_Rdtp,f
  2412                           
  2413                           ;skI2C.c: 211: rcv_flg++ ;
  2414  00C7  3001               	movlw	1
  2415  00C8  07A2               	addwf	_rcv_flg,f
  2416  00C9  3000               	movlw	0
  2417  00CA  3DA3               	addwfc	_rcv_flg+1,f
  2418  00CB  28F3               	goto	L3
  2419  00CC                     i1l341:	
  2420                           ;skI2C.c: 215: } else {
  2421                           
  2422                           ;skI2C.c: 214: SSPCON1bits.CKP = 1 ;
  2423                           
  2424                           ;skI2C.c: 212: }
  2425                           ;skI2C.c: 213: SSPIF = 0 ;
  2426                           
  2427                           
  2428                           ;skI2C.c: 217: if (SSPSTATbits.BF == 1) {
  2429  00CC  1C14               	btfss	20,0	;volatile
  2430  00CD  28DF               	goto	i1l345
  2431                           
  2432                           ;skI2C.c: 219: Sdtp = (char *)snd_data ;
  2433  00CE  3026               	movlw	(low (_snd_data| 0))& (0+255)
  2434  00CF  00F0               	movwf	??_Slave_Interrupt
  2435  00D0  0870               	movf	??_Slave_Interrupt,w
  2436  00D1  00F8               	movwf	_Sdtp
  2437                           
  2438                           ;skI2C.c: 220: x = SSPBUF ;
  2439  00D2  0811               	movf	17,w	;volatile
  2440  00D3  00F0               	movwf	??_Slave_Interrupt
  2441  00D4  0870               	movf	??_Slave_Interrupt,w
  2442  00D5  00F1               	movwf	Slave_Interrupt@x
  2443  00D6                     i1l1243:	
  2444                           ;skI2C.c: 221: while((SSPCON1bits.CKP)|(SSPSTATbits.BF)) ;
  2445                           
  2446  00D6  0814               	movf	20,w	;volatile
  2447  00D7  3901               	andlw	1
  2448  00D8  00F0               	movwf	??_Slave_Interrupt
  2449  00D9  0E15               	swapf	21,w	;volatile
  2450  00DA  3901               	andlw	1
  2451  00DB  0470               	iorwf	??_Slave_Interrupt,w
  2452  00DC  1D03               	btfss	3,2
  2453  00DD  28D6               	goto	i1l1243
  2454  00DE  28E9               	goto	i1l1257
  2455  00DF                     i1l345:	
  2456                           ;skI2C.c: 226: } else {
  2457                           
  2458                           ;skI2C.c: 225: SSPCON1bits.CKP = 1 ;
  2459                           
  2460                           ;skI2C.c: 224: SSPIF = 0 ;
  2461                           
  2462                           ;skI2C.c: 223: Sdtp++ ;
  2463                           
  2464                           ;skI2C.c: 222: SSPBUF = *Sdtp ;
  2465                           
  2466                           
  2467                           ;skI2C.c: 228: if (SSPCON2bits.ACKSTAT==0) {
  2468  00DF  1B16               	btfsc	22,6	;volatile
  2469  00E0  28F7               	goto	i1l350
  2470  00E1                     i1l1255:	
  2471                           ;skI2C.c: 230: while((SSPCON1bits.CKP)|(SSPSTATbits.BF)) ;
  2472                           
  2473  00E1  0814               	movf	20,w	;volatile
  2474  00E2  3901               	andlw	1
  2475  00E3  00F0               	movwf	??_Slave_Interrupt
  2476  00E4  0E15               	swapf	21,w	;volatile
  2477  00E5  3901               	andlw	1
  2478  00E6  0470               	iorwf	??_Slave_Interrupt,w
  2479  00E7  1D03               	btfss	3,2
  2480  00E8  28E1               	goto	i1l1255
  2481  00E9                     i1l1257:	
  2482                           
  2483                           ;skI2C.c: 231: SSPBUF = *Sdtp ;
  2484  00E9  0878               	movf	_Sdtp,w
  2485  00EA  0086               	movwf	6
  2486  00EB  0187               	clrf	7
  2487  00EC  0801               	movf	1,w
  2488  00ED  0091               	movwf	17	;volatile
  2489                           
  2490                           ;skI2C.c: 232: Sdtp++ ;
  2491  00EE  3001               	movlw	1
  2492  00EF  00F0               	movwf	??_Slave_Interrupt
  2493  00F0  0870               	movf	??_Slave_Interrupt,w
  2494  00F1  07F8               	addwf	_Sdtp,f
  2495                           
  2496                           ;skI2C.c: 233: SSPIF = 0 ;
  2497  00F2  0020               	movlb	0	; select bank0
  2498  00F3                     L3:	
  2499  00F3  1191               	bcf	17,3	;volatile
  2500                           
  2501                           ;skI2C.c: 234: SSPCON1bits.CKP = 1 ;
  2502  00F4  0024               	movlb	4	; select bank4
  2503  00F5  1615               	bsf	21,4	;volatile
  2504                           
  2505                           ;skI2C.c: 235: } else {
  2506  00F6  28F9               	goto	i1l340
  2507  00F7                     i1l350:	
  2508                           
  2509                           ;skI2C.c: 237: SSPIF = 0 ;
  2510  00F7  0020               	movlb	0	; select bank0
  2511  00F8  1191               	bcf	17,3	;volatile
  2512  00F9                     i1l340:	
  2513                           
  2514                           ;skI2C.c: 238: }
  2515                           ;skI2C.c: 239: }
  2516                           ;skI2C.c: 240: }
  2517                           ;skI2C.c: 241: }
  2518                           ;skI2C.c: 244: if (BCLIF == 1) {
  2519  00F9  0020               	movlb	0	; select bank0
  2520  00FA  1D92               	btfss	18,3	;volatile
  2521  00FB  0008               	return
  2522                           
  2523                           ;skI2C.c: 245: BCLIF = 0 ;
  2524  00FC  1192               	bcf	18,3	;volatile
  2525  00FD  0008               	return
  2526  00FE                     __end_of_Slave_Interrupt:	
  2527  007E                     btemp	set	126	;btemp
  2528  007E                     int$flags	set	126
  2529  007E                     wtemp0	set	126


Data Sizes:
    Strings     0
    Constant    0
    Data        0
    BSS         26
    Persistent  0
    Stack       0

Auto Spaces:
    Space          Size  Autos    Used
    COMMON           14      6      10
    BANK0            80      4      26
    BANK1            80      0       0
    BANK2            80      0       0
    BANK3            80      0       0
    BANK4            80      0       0
    BANK5            80      0       0
    BANK6            80      0       0
    BANK7            80      0       0
    BANK8            80      0       0
    BANK9            80      0       0
    BANK10           80      0       0
    BANK11           80      0       0
    BANK12           48      0       0

Pointer List with Targets:

    Sdtp	PTR unsigned char  size(1) Largest target is 8
		 -> NULL(NULL[0]), snd_data(BANK0[8]), 

    Rdtp	PTR unsigned char  size(1) Largest target is 8
		 -> NULL(NULL[0]), rcv_data(BANK0[8]), 


Critical Paths under _main in COMMON

    _main->_ad_init

Critical Paths under _function in COMMON

    _function->_Slave_Interrupt

Critical Paths under _main in BANK0

    None.

Critical Paths under _function in BANK0

    None.

Critical Paths under _main in BANK1

    None.

Critical Paths under _function in BANK1

    None.

Critical Paths under _main in BANK2

    None.

Critical Paths under _function in BANK2

    None.

Critical Paths under _main in BANK3

    None.

Critical Paths under _function in BANK3

    None.

Critical Paths under _main in BANK4

    None.

Critical Paths under _function in BANK4

    None.

Critical Paths under _main in BANK5

    None.

Critical Paths under _function in BANK5

    None.

Critical Paths under _main in BANK6

    None.

Critical Paths under _function in BANK6

    None.

Critical Paths under _main in BANK7

    None.

Critical Paths under _function in BANK7

    None.

Critical Paths under _main in BANK8

    None.

Critical Paths under _function in BANK8

    None.

Critical Paths under _main in BANK9

    None.

Critical Paths under _function in BANK9

    None.

Critical Paths under _main in BANK10

    None.

Critical Paths under _function in BANK10

    None.

Critical Paths under _main in BANK11

    None.

Critical Paths under _function in BANK11

    None.

Critical Paths under _main in BANK12

    None.

Critical Paths under _function in BANK12

    None.

Call Graph Tables:

 ---------------------------------------------------------------------------------
 (Depth) Function   	        Calls       Base Space   Used Autos Params    Refs
 ---------------------------------------------------------------------------------
 (0) _main                                                 4     4      0     743
                                              0 BANK0      4     4      0
                          _FirstInit
                      _InitI2C_Slave
                          _PWMConfig
                            _PWMInit
                            _ad_init
 ---------------------------------------------------------------------------------
 (1) _ad_init                                              3     3      0      68
                                              3 COMMON     3     3      0
 ---------------------------------------------------------------------------------
 (1) _PWMInit                                              0     0      0       0
 ---------------------------------------------------------------------------------
 (1) _PWMConfig                                            2     1      1     415
                                              3 COMMON     2     1      1
 ---------------------------------------------------------------------------------
 (1) _InitI2C_Slave                                        2     0      2      96
                                              3 COMMON     2     0      2
 ---------------------------------------------------------------------------------
 (1) _FirstInit                                            1     1      0       0
                                              3 COMMON     1     1      0
 ---------------------------------------------------------------------------------
 Estimated maximum stack depth 1
 ---------------------------------------------------------------------------------
 (Depth) Function   	        Calls       Base Space   Used Autos Params    Refs
 ---------------------------------------------------------------------------------
 (2) _function                                             1     1      0       2
                                              2 COMMON     1     1      0
                    _Slave_Interrupt
                   _Timer0_Interrupt
                     _UART_Interrupt
 ---------------------------------------------------------------------------------
 (3) _UART_Interrupt                                       1     1      0       0
                                              0 COMMON     1     1      0
 ---------------------------------------------------------------------------------
 (3) _Timer0_Interrupt                                     0     0      0       0
 ---------------------------------------------------------------------------------
 (3) _Slave_Interrupt                                      2     2      0       2
                                              0 COMMON     2     2      0
 ---------------------------------------------------------------------------------
 Estimated maximum stack depth 3
 ---------------------------------------------------------------------------------

 Call Graph Graphs:

 _main (ROOT)
   _FirstInit
   _InitI2C_Slave
   _PWMConfig
   _PWMInit
   _ad_init

 _function (ROOT)
   _Slave_Interrupt
   _Timer0_Interrupt
   _UART_Interrupt

 Address spaces:
Name               Size   Autos  Total    Cost      Usage
BIGRAM             3F0      0       0       0        0.0%
EEDATA             100      0       0       0        0.0%
NULL                 0      0       0       0        0.0%
CODE                 0      0       0       0        0.0%
BITCOMMON            E      0       0       1        0.0%
BITSFR0              0      0       0       1        0.0%
SFR0                 0      0       0       1        0.0%
COMMON               E      6       A       2       71.4%
BITSFR1              0      0       0       2        0.0%
SFR1                 0      0       0       2        0.0%
BITSFR2              0      0       0       3        0.0%
SFR2                 0      0       0       3        0.0%
STACK                0      0       0       3        0.0%
BITBANK0            50      0       0       4        0.0%
BITSFR3              0      0       0       4        0.0%
SFR3                 0      0       0       4        0.0%
BANK0               50      4      1A       5       32.5%
BITSFR4              0      0       0       5        0.0%
SFR4                 0      0       0       5        0.0%
BITBANK1            50      0       0       6        0.0%
BITSFR5              0      0       0       6        0.0%
SFR5                 0      0       0       6        0.0%
BANK1               50      0       0       7        0.0%
BITSFR6              0      0       0       7        0.0%
SFR6                 0      0       0       7        0.0%
BITBANK2            50      0       0       8        0.0%
BITSFR7              0      0       0       8        0.0%
SFR7                 0      0       0       8        0.0%
BANK2               50      0       0       9        0.0%
BITSFR8              0      0       0       9        0.0%
SFR8                 0      0       0       9        0.0%
BITBANK3            50      0       0      10        0.0%
BITSFR9              0      0       0      10        0.0%
SFR9                 0      0       0      10        0.0%
BANK3               50      0       0      11        0.0%
BITSFR10             0      0       0      11        0.0%
SFR10                0      0       0      11        0.0%
BITBANK4            50      0       0      12        0.0%
BITSFR11             0      0       0      12        0.0%
SFR11                0      0       0      12        0.0%
BANK4               50      0       0      13        0.0%
BITSFR12             0      0       0      13        0.0%
SFR12                0      0       0      13        0.0%
BITBANK5            50      0       0      14        0.0%
BITSFR13             0      0       0      14        0.0%
SFR13                0      0       0      14        0.0%
BANK5               50      0       0      15        0.0%
BITSFR14             0      0       0      15        0.0%
SFR14                0      0       0      15        0.0%
BITBANK6            50      0       0      16        0.0%
BITSFR15             0      0       0      16        0.0%
SFR15                0      0       0      16        0.0%
BANK6               50      0       0      17        0.0%
BITSFR16             0      0       0      17        0.0%
SFR16                0      0       0      17        0.0%
BITBANK7            50      0       0      18        0.0%
BITSFR17             0      0       0      18        0.0%
SFR17                0      0       0      18        0.0%
BANK7               50      0       0      19        0.0%
BITSFR18             0      0       0      19        0.0%
SFR18                0      0       0      19        0.0%
BITSFR19             0      0       0      20        0.0%
SFR19                0      0       0      20        0.0%
ABS                  0      0      24      20        0.0%
BITBANK8            50      0       0      21        0.0%
BITSFR20             0      0       0      21        0.0%
SFR20                0      0       0      21        0.0%
BANK8               50      0       0      22        0.0%
BITSFR21             0      0       0      22        0.0%
SFR21                0      0       0      22        0.0%
BITBANK9            50      0       0      23        0.0%
BITSFR22             0      0       0      23        0.0%
SFR22                0      0       0      23        0.0%
BANK9               50      0       0      24        0.0%
BITSFR23             0      0       0      24        0.0%
SFR23                0      0       0      24        0.0%
BITBANK10           50      0       0      25        0.0%
BITSFR24             0      0       0      25        0.0%
SFR24                0      0       0      25        0.0%
BANK10              50      0       0      26        0.0%
BITSFR25             0      0       0      26        0.0%
SFR25                0      0       0      26        0.0%
BITBANK11           50      0       0      27        0.0%
BITSFR26             0      0       0      27        0.0%
SFR26                0      0       0      27        0.0%
BANK11              50      0       0      28        0.0%
BITSFR27             0      0       0      28        0.0%
SFR27                0      0       0      28        0.0%
BITBANK12           30      0       0      29        0.0%
BITSFR28             0      0       0      29        0.0%
SFR28                0      0       0      29        0.0%
BANK12              30      0       0      30        0.0%
BITSFR29             0      0       0      30        0.0%
SFR29                0      0       0      30        0.0%
BITSFR30             0      0       0      31        0.0%
SFR30                0      0       0      31        0.0%
DATA                 0      0      24      31        0.0%
BITSFR31             0      0       0      32        0.0%
SFR31                0      0       0      32        0.0%


Microchip Technology PIC Macro Assembler V1.41 build -162212810 
Symbol Table                                                                                   Thu Feb 16 15:50:44 2017

              __CFG_CP$OFF 0000                _SSPSTATbits 0214                        l153 0128  
                      _GIE 005F                        _RB0 0068                        _RB1 0069  
                      _RB2 006A                        _RC2 0072                        _RB4 006C  
                      _PR2 001B               __CFG_CPD$OFF 0000                        u807 0053  
                      u817 018A                        u827 0150                        u797 0045  
 __size_of_Slave_Interrupt 005A               __CFG_BORV$HI 0000                        wreg 0009  
             __CFG_LVP$OFF 0000                       l1533 010F                       l1607 0076  
                     l1539 011B                       l1591 005F                       l1587 0081  
                     l1599 006A                       _PEIE 005E                       _RCIE 048D  
                     _RCIF 008D                       _TMR0 0015                       _TXEN 0CF5  
                     _TXIF 008C               __CFG_WRT$OFF 0000                       _Rdtp 0024  
                     _Sdtp 0078                       _main 0027                       fsr0h 0005  
                     fsr1h 0007                       indf0 0000                       fsr0l 0004  
                     indf1 0001                       fsr1l 0006                       btemp 007E  
          __end_of_PWMInit 019D              __CFG_BOREN$ON 0000                       start 0016  
            __CFG_IESO$OFF 0000            ??_InitI2C_Slave 0075              __CFG_PLLEN$ON 0000  
                    _ADDEN 0CEB                      ?_main 0070                      _BCLIE 0493  
                    _BCLIF 0093              __CFG_WDTE$OFF 0000                      _T2CON 001C  
                    _LATA3 0863                      _LATA4 0864            __end_of_ad_init 0190  
                    i1l340 00F9                      i1l341 00CC                      i1l350 00F7  
                    i1l345 00DF                      _RCREG 0199                      _RCSTA 019D  
                    _SPBRG 019B                      _PORTA 000C                      _PORTB 000D  
                    _PORTC 000E                      _TRISA 008C                      _TRISB 008D  
                    _TRISC 008E                      _SSPIE 048B                      _SSPIF 008B  
                    _TXREG 019A                      _TXSTA 019E              __CFG_PWRTE$ON 0000  
           __CFG_FCMEN$OFF 0000                      status 0003         __size_of_PWMConfig 0032  
                    wtemp0 007E             __CFG_MCLRE$OFF 0000            __initialization 0018  
             __end_of_main 00A4               PWMConfig@pwm 0073                     ??_main 0036  
                   _ADCON0 009D                     _ADCON1 009E                     _ADRESH 009C  
                   _ADRESL 009B                     _CCPR1L 0291          ??_Slave_Interrupt 0070  
                ??_PWMInit 0073                     _ANSELA 018C                     _ANSELB 018D  
       __size_of_FirstInit 0019                     i1l1231 00BA                     i1l1243 00D6  
                   i1l1255 00E1                     i1l1257 00E9                     _OSCCON 0099  
                   _TMR0IE 005D                     _TMR0IF 005A                     _SSPADD 0212  
                   _SSPBUF 0211                     _SSPMSK 0213             __CFG_STVREN$ON 0000  
                ??_ad_init 0073           __end_of_function 0016          ?_Timer0_Interrupt 0070  
        __end_of_PWMConfig 0130    __size_of_UART_Interrupt 0017         ??_Timer0_Interrupt 0070  
  __end_of__initialization 0023             __pcstackCOMMON 0070          __end_of_FirstInit 0163  
            PWMConfig@turn 0074                 __pbssBANK0 0020            __CFG_VCAPEN$OFF 0000  
               __pmaintext 0027                 __pintentry 0004                    _CM1CON0 0111  
                  _CM1CON1 0112                    _CCP1CON 0293                    _SSPCON1 0215  
                  _SSPCON2 0216                    _SSPSTAT 0214                    _PWMInit 0190  
                ?_function 0070      __end_of_InitI2C_Slave 014A                    _ad_init 017A  
                  __ptext1 017A                    __ptext2 0190                    __ptext3 00FE  
                  __ptext4 0130                    __ptext5 014A                    __ptext7 0163  
                  __ptext8 019D                    __ptext9 00A4            _Slave_Interrupt 00A4  
           _UART_Interrupt 0163                    _rcv_flg 0022                    _success 0020  
                  main@cnt 0038                    clrloop0 01A5       end_of_initialization 0023  
               ??_function 0072     __end_of_UART_Interrupt 017A                  _UART_data 0025  
         __CFG_FOSC$INTOSC 0000                  _PWMConfig 00FE  __size_of_Timer0_Interrupt 0007  
  __end_of_Slave_Interrupt 00FE            ?_UART_Interrupt 0070                  _FirstInit 014A  
      start_initialization 0018                 ?_PWMConfig 0073                 ?_FirstInit 0070  
              __pbssCOMMON 0076                  ___latbits 0003              __pcstackBANK0 0036  
                 ?_PWMInit 0070          __size_of_function 0012                ad_init@AN_A 0074  
              ad_init@AN_B 0075           ?_Slave_Interrupt 0070                   ?_ad_init 0070  
                 _CCPTMRS0 029E                ??_PWMConfig 0074           _Timer0_Interrupt 019D  
                clear_ram0 01A4                   _GO_nDONE 04E9                   _RCV_Buff 0079  
                 _PSTR1CON 0296                   _AckCheck 0076                ??_FirstInit 0073  
                main@speed 0039     __size_of_InitI2C_Slave 001A           __size_of_PWMInit 000D  
         ??_UART_Interrupt 0070           __size_of_ad_init 0016           Slave_Interrupt@x 0071  
            __size_of_main 007D                   _function 0004                   _rcv_data 002E  
                 _snd_data 0026                   int$flags 007E              _InitI2C_Slave 0130  
                 intlevel1 0000          __CFG_CLKOUTEN$OFF 0000             ?_InitI2C_Slave 0073  
 __end_of_Timer0_Interrupt 01A4                 _OPTION_REG 0095       InitI2C_Slave@address 0073  
              _SSPCON1bits 0215                _SSPCON2bits 0216  
